
kernel7.elf:     file format elf32-littlearm


Disassembly of section .text:

00008000 <__start>:
    8000:	e59ff018 	ldr	pc, [pc, #24]	; 8020 <reset_addr>
    8004:	e59ff018 	ldr	pc, [pc, #24]	; 8024 <undefined_instruction_addr>
    8008:	e59ff018 	ldr	pc, [pc, #24]	; 8028 <software_interrupt_addr>
    800c:	e59ff018 	ldr	pc, [pc, #24]	; 802c <prefetch_abort_addr>
    8010:	e59ff018 	ldr	pc, [pc, #24]	; 8030 <data_abort_addr>
    8014:	e59ff018 	ldr	pc, [pc, #24]	; 8034 <unused_handler_addr>
    8018:	e59ff018 	ldr	pc, [pc, #24]	; 8038 <interrupt_addr>
    801c:	e59ff018 	ldr	pc, [pc, #24]	; 803c <fast_interrupt_addr>

00008020 <reset_addr>:
    8020:	00008040 	andeq	r8, r0, r0, asr #32

00008024 <undefined_instruction_addr>:
    8024:	000094e0 	andeq	r9, r0, r0, ror #9

00008028 <software_interrupt_addr>:
    8028:	00009670 	andeq	r9, r0, r0, ror r6

0000802c <prefetch_abort_addr>:
    802c:	000094c8 	andeq	r9, r0, r8, asr #9

00008030 <data_abort_addr>:
    8030:	000094c8 	andeq	r9, r0, r8, asr #9

00008034 <unused_handler_addr>:
    8034:	000094e0 	andeq	r9, r0, r0, ror #9

00008038 <interrupt_addr>:
    8038:	000094f8 	strdeq	r9, [r0], -r8

0000803c <fast_interrupt_addr>:
    803c:	000094b0 			; <UNDEFINED> instruction: 0x000094b0

00008040 <reset>:
    8040:	ee103fb0 	mrc	15, 0, r3, cr0, cr0, {5}
    8044:	e2133003 	ands	r3, r3, #3
    8048:	1a000023 	bne	80dc <wait_forever>
    804c:	f10c00c0 	cpsid	if
    8050:	e10f3000 	mrs	r3, CPSR
    8054:	e203401f 	and	r4, r3, #31
    8058:	e354001a 	cmp	r4, #26
    805c:	1a000006 	bne	807c <done_hyp>
    8060:	e3c3301f 	bic	r3, r3, #31
    8064:	e38330d3 	orr	r3, r3, #211	; 0xd3
    8068:	e3833c01 	orr	r3, r3, #256	; 0x100
    806c:	e28fe010 	add	lr, pc, #16
    8070:	e16ff003 	msr	SPSR_fsxc, r3
    8074:	e12ef30e 	msr	ELR_hyp, lr
    8078:	e160006e 	eret

0000807c <done_hyp>:
    807c:	e38330d3 	orr	r3, r3, #211	; 0xd3
    8080:	e121f003 	msr	CPSR_c, r3

00008084 <done_pi2>:
    8084:	e3a0d902 	mov	sp, #32768	; 0x8000
    8088:	e3a030d2 	mov	r3, #210	; 0xd2
    808c:	e121f003 	msr	CPSR_c, r3
    8090:	e3a0d901 	mov	sp, #16384	; 0x4000
    8094:	e3a030d3 	mov	r3, #211	; 0xd3
    8098:	e121f003 	msr	CPSR_c, r3
    809c:	e59f3040 	ldr	r3, [pc, #64]	; 80e4 <wait_forever+0x8>
    80a0:	e3a04000 	mov	r4, #0
    80a4:	e8b31fe0 	ldm	r3!, {r5, r6, r7, r8, r9, sl, fp, ip}
    80a8:	e8a41fe0 	stmia	r4!, {r5, r6, r7, r8, r9, sl, fp, ip}
    80ac:	e8b31fe0 	ldm	r3!, {r5, r6, r7, r8, r9, sl, fp, ip}
    80b0:	e8a41fe0 	stmia	r4!, {r5, r6, r7, r8, r9, sl, fp, ip}
    80b4:	e59f402c 	ldr	r4, [pc, #44]	; 80e8 <wait_forever+0xc>
    80b8:	e59f902c 	ldr	r9, [pc, #44]	; 80ec <wait_forever+0x10>
    80bc:	e3a05000 	mov	r5, #0

000080c0 <clear_bss>:
    80c0:	e5845000 	str	r5, [r4]
    80c4:	e2844004 	add	r4, r4, #4
    80c8:	e1540009 	cmp	r4, r9
    80cc:	dafffffb 	ble	80c0 <clear_bss>
    80d0:	e59f3014 	ldr	r3, [pc, #20]	; 80ec <wait_forever+0x10>
    80d4:	e59f4014 	ldr	r4, [pc, #20]	; 80f0 <wait_forever+0x14>
    80d8:	e12fff34 	blx	r4

000080dc <wait_forever>:
    80dc:	e320f002 	wfe
    80e0:	eafffffd 	b	80dc <wait_forever>
    80e4:	00008000 	andeq	r8, r0, r0
    80e8:	00026000 	andeq	r6, r2, r0
    80ec:	00038000 	andeq	r8, r3, r0
    80f0:	000080f4 	strdeq	r8, [r0], -r4

000080f4 <kernel_main>:
    80f4:	e92d4080 	push	{r7, lr}
    80f8:	e1a04001 	mov	r4, r1
    80fc:	e1a05002 	mov	r5, r2
    8100:	e1a07000 	mov	r7, r0
    8104:	e1a06003 	mov	r6, r3
    8108:	e24dd008 	sub	sp, sp, #8
    810c:	e1a00002 	mov	r0, r2
    8110:	eb000030 	bl	81d8 <hardware_detect>
    8114:	eb0001a0 	bl	879c <hardware_setup_vars>
    8118:	e3a00001 	mov	r0, #1
    811c:	eb000a05 	bl	a938 <serial_init>
    8120:	e59f0084 	ldr	r0, [pc, #132]	; 81ac <kernel_main+0xb8>
    8124:	eb001272 	bl	caf4 <serial_printk>
    8128:	e1a03005 	mov	r3, r5
    812c:	e1a02004 	mov	r2, r4
    8130:	e1a01007 	mov	r1, r7
    8134:	e59f0074 	ldr	r0, [pc, #116]	; 81b0 <kernel_main+0xbc>
    8138:	eb00125c 	bl	cab0 <printk>
    813c:	e59f0070 	ldr	r0, [pc, #112]	; 81b4 <kernel_main+0xc0>
    8140:	eb00125a 	bl	cab0 <printk>
    8144:	e59f106c 	ldr	r1, [pc, #108]	; 81b8 <kernel_main+0xc4>
    8148:	e59f006c 	ldr	r0, [pc, #108]	; 81bc <kernel_main+0xc8>
    814c:	eb001257 	bl	cab0 <printk>
    8150:	e1a00004 	mov	r0, r4
    8154:	eb0000e3 	bl	84e8 <hardware_print_model>
    8158:	eb000162 	bl	86e8 <hardware_print_commandline>
    815c:	eb000453 	bl	92b0 <platform_irq_enable>
    8160:	eb000913 	bl	a5b4 <drivers_init_all>
    8164:	e1a00006 	mov	r0, r6
    8168:	eb000da2 	bl	b7f8 <memory_hierarchy_init>
    816c:	eb00076b 	bl	9f20 <fd_table_init>
    8170:	e3a01b5d 	mov	r1, #95232	; 0x17400
    8174:	e59f0044 	ldr	r0, [pc, #68]	; 81c0 <kernel_main+0xcc>
    8178:	eb000934 	bl	a650 <ramdisk_init>
    817c:	e3a03000 	mov	r3, #0
    8180:	e59f203c 	ldr	r2, [pc, #60]	; 81c4 <kernel_main+0xd0>
    8184:	e59f103c 	ldr	r1, [pc, #60]	; 81c8 <kernel_main+0xd4>
    8188:	e58d3000 	str	r3, [sp]
    818c:	e59f0038 	ldr	r0, [pc, #56]	; 81cc <kernel_main+0xd8>
    8190:	eb00074f 	bl	9ed4 <mount>
    8194:	eb000f20 	bl	be1c <create_idle_task>
    8198:	e59f0030 	ldr	r0, [pc, #48]	; 81d0 <kernel_main+0xdc>
    819c:	eb000f7c 	bl	bf94 <start_userspace>
    81a0:	e59f002c 	ldr	r0, [pc, #44]	; 81d4 <kernel_main+0xe0>
    81a4:	eb001241 	bl	cab0 <printk>
    81a8:	eafffffe 	b	81a8 <kernel_main+0xb4>
    81ac:	0000d000 	andeq	sp, r0, r0
    81b0:	0000d018 	andeq	sp, r0, r8, lsl r0
    81b4:	0000d03c 	andeq	sp, r0, ip, lsr r0
    81b8:	0000d048 	andeq	sp, r0, r8, asr #32
    81bc:	0000d04c 	andeq	sp, r0, ip, asr #32
    81c0:	0000e000 	andeq	lr, r0, r0
    81c4:	0000d05c 	andeq	sp, r0, ip, asr r0
    81c8:	0000d064 	andeq	sp, r0, r4, rrx
    81cc:	0000d068 	andeq	sp, r0, r8, rrx
    81d0:	0000d078 	andeq	sp, r0, r8, ror r0
    81d4:	0000d084 	andeq	sp, r0, r4, lsl #1

000081d8 <hardware_detect>:
    81d8:	e92d4070 	push	{r4, r5, r6, lr}
    81dc:	eb000295 	bl	8c38 <devicetree_setup>
    81e0:	e2504000 	subs	r4, r0, #0
    81e4:	0a000001 	beq	81f0 <hardware_detect+0x18>
    81e8:	e3a00000 	mov	r0, #0
    81ec:	e8bd8070 	pop	{r4, r5, r6, pc}
    81f0:	e3085000 	movw	r5, #32768	; 0x8000
    81f4:	e3a03001 	mov	r3, #1
    81f8:	e3405002 	movt	r5, #2
    81fc:	e30d109c 	movw	r1, #53404	; 0xd09c
    8200:	e3401000 	movt	r1, #0
    8204:	e1a02005 	mov	r2, r5
    8208:	e30d00ac 	movw	r0, #53420	; 0xd0ac
    820c:	e4823004 	str	r3, [r2], #4
    8210:	e3400000 	movt	r0, #0
    8214:	eb000329 	bl	8ec0 <devicetree_find_int>
    8218:	e5953004 	ldr	r3, [r5, #4]
    821c:	e30220e0 	movw	r2, #8416	; 0x20e0
    8220:	e3402090 	movt	r2, #144	; 0x90
    8224:	e1530002 	cmp	r3, r2
    8228:	0a0000ac 	beq	84e0 <hardware_detect+0x308>
    822c:	9a00001d 	bls	82a8 <hardware_detect+0xd0>
    8230:	e30220d3 	movw	r2, #8403	; 0x20d3
    8234:	e34020a0 	movt	r2, #160	; 0xa0
    8238:	e1530002 	cmp	r3, r2
    823c:	0a0000a5 	beq	84d8 <hardware_detect+0x300>
    8240:	9a000064 	bls	83d8 <hardware_detect+0x200>
    8244:	e3022042 	movw	r2, #8258	; 0x2042
    8248:	e34020a2 	movt	r2, #162	; 0xa2
    824c:	e1530002 	cmp	r3, r2
    8250:	03a0300b 	moveq	r3, #11
    8254:	0a00000e 	beq	8294 <hardware_detect+0xbc>
    8258:	9a000090 	bls	84a0 <hardware_detect+0x2c8>
    825c:	e3032112 	movw	r2, #12562	; 0x3112
    8260:	e34020b0 	movt	r2, #176	; 0xb0
    8264:	e1530002 	cmp	r3, r2
    8268:	8a000041 	bhi	8374 <hardware_detect+0x19c>
    826c:	e3032110 	movw	r2, #12560	; 0x3110
    8270:	e34020b0 	movt	r2, #176	; 0xb0
    8274:	e1530002 	cmp	r3, r2
    8278:	8a000092 	bhi	84c8 <hardware_detect+0x2f0>
    827c:	e3c33801 	bic	r3, r3, #65536	; 0x10000
    8280:	e3020082 	movw	r0, #8322	; 0x2082
    8284:	e34000a2 	movt	r0, #162	; 0xa2
    8288:	e1530000 	cmp	r3, r0
    828c:	03a03009 	moveq	r3, #9
    8290:	13a03000 	movne	r3, #0
    8294:	e3052400 	movw	r2, #21504	; 0x5400
    8298:	e3a00000 	mov	r0, #0
    829c:	e3402002 	movt	r2, #2
    82a0:	e5823000 	str	r3, [r2]
    82a4:	e8bd8070 	pop	{r4, r5, r6, pc}
    82a8:	e3530015 	cmp	r3, #21
    82ac:	8a000019 	bhi	8318 <hardware_detect+0x140>
    82b0:	e3530001 	cmp	r3, #1
    82b4:	9a00002c 	bls	836c <hardware_detect+0x194>
    82b8:	e2433002 	sub	r3, r3, #2
    82bc:	e3530013 	cmp	r3, #19
    82c0:	979ff103 	ldrls	pc, [pc, r3, lsl #2]
    82c4:	ea000028 	b	836c <hardware_detect+0x194>
    82c8:	00008364 	andeq	r8, r0, r4, ror #6
    82cc:	00008364 	andeq	r8, r0, r4, ror #6
    82d0:	00008364 	andeq	r8, r0, r4, ror #6
    82d4:	00008364 	andeq	r8, r0, r4, ror #6
    82d8:	00008364 	andeq	r8, r0, r4, ror #6
    82dc:	0000835c 	andeq	r8, r0, ip, asr r3
    82e0:	0000835c 	andeq	r8, r0, ip, asr r3
    82e4:	0000835c 	andeq	r8, r0, ip, asr r3
    82e8:	0000836c 	andeq	r8, r0, ip, ror #6
    82ec:	0000836c 	andeq	r8, r0, ip, ror #6
    82f0:	0000836c 	andeq	r8, r0, ip, ror #6
    82f4:	00008364 	andeq	r8, r0, r4, ror #6
    82f8:	00008364 	andeq	r8, r0, r4, ror #6
    82fc:	00008364 	andeq	r8, r0, r4, ror #6
    8300:	00008354 	andeq	r8, r0, r4, asr r3
    8304:	000084d0 	ldrdeq	r8, [r0], -r0
    8308:	0000834c 	andeq	r8, r0, ip, asr #6
    830c:	00008354 	andeq	r8, r0, r4, asr r3
    8310:	000084d0 	ldrdeq	r8, [r0], -r0
    8314:	0000834c 	andeq	r8, r0, ip, asr #6
    8318:	e3a02093 	mov	r2, #147	; 0x93
    831c:	e3402090 	movt	r2, #144	; 0x90
    8320:	e1530002 	cmp	r3, r2
    8324:	8a000057 	bhi	8488 <hardware_detect+0x2b0>
    8328:	e3a02091 	mov	r2, #145	; 0x91
    832c:	e3402090 	movt	r2, #144	; 0x90
    8330:	e1530002 	cmp	r3, r2
    8334:	83a03008 	movhi	r3, #8
    8338:	8affffd5 	bhi	8294 <hardware_detect+0xbc>
    833c:	e3a02021 	mov	r2, #33	; 0x21
    8340:	e3402090 	movt	r2, #144	; 0x90
    8344:	e1530002 	cmp	r3, r2
    8348:	1a000048 	bne	8470 <hardware_detect+0x298>
    834c:	e3a03003 	mov	r3, #3
    8350:	eaffffcf 	b	8294 <hardware_detect+0xbc>
    8354:	e3a03004 	mov	r3, #4
    8358:	eaffffcd 	b	8294 <hardware_detect+0xbc>
    835c:	e3a03001 	mov	r3, #1
    8360:	eaffffcb 	b	8294 <hardware_detect+0xbc>
    8364:	e3a03002 	mov	r3, #2
    8368:	eaffffc9 	b	8294 <hardware_detect+0xbc>
    836c:	e3a03000 	mov	r3, #0
    8370:	eaffffc7 	b	8294 <hardware_detect+0xbc>
    8374:	e3032115 	movw	r2, #12565	; 0x3115
    8378:	e34020c0 	movt	r2, #192	; 0xc0
    837c:	e1530002 	cmp	r3, r2
    8380:	8a000033 	bhi	8454 <hardware_detect+0x27c>
    8384:	e3032113 	movw	r2, #12563	; 0x3113
    8388:	e34020c0 	movt	r2, #192	; 0xc0
    838c:	e1530002 	cmp	r3, r2
    8390:	8a00004c 	bhi	84c8 <hardware_detect+0x2f0>
    8394:	e3032115 	movw	r2, #12565	; 0x3115
    8398:	e34020b0 	movt	r2, #176	; 0xb0
    839c:	e1530002 	cmp	r3, r2
    83a0:	8a000005 	bhi	83bc <hardware_detect+0x1e4>
    83a4:	e3030113 	movw	r0, #12563	; 0x3113
    83a8:	e34000b0 	movt	r0, #176	; 0xb0
    83ac:	e1530000 	cmp	r3, r0
    83b0:	13a03010 	movne	r3, #16
    83b4:	03a03000 	moveq	r3, #0
    83b8:	eaffffb5 	b	8294 <hardware_detect+0xbc>
    83bc:	e30c2eef 	movw	r2, #52975	; 0xceef
    83c0:	e34f2f3f 	movt	r2, #65343	; 0xff3f
    83c4:	e0832002 	add	r2, r3, r2
    83c8:	e3520002 	cmp	r2, #2
    83cc:	33a03010 	movcc	r3, #16
    83d0:	23a03000 	movcs	r3, #0
    83d4:	eaffffae 	b	8294 <hardware_detect+0xbc>
    83d8:	e3012041 	movw	r2, #4161	; 0x1041
    83dc:	e34020a0 	movt	r2, #160	; 0xa0
    83e0:	e1530002 	cmp	r3, r2
    83e4:	8a00000f 	bhi	8428 <hardware_detect+0x250>
    83e8:	e3a02d41 	mov	r2, #4160	; 0x1040
    83ec:	e34020a0 	movt	r2, #160	; 0xa0
    83f0:	e1530002 	cmp	r3, r2
    83f4:	23a03007 	movcs	r3, #7
    83f8:	2affffa5 	bcs	8294 <hardware_detect+0xbc>
    83fc:	e3022120 	movw	r2, #8480	; 0x2120
    8400:	e3402090 	movt	r2, #144	; 0x90
    8404:	e1530002 	cmp	r3, r2
    8408:	03a0300e 	moveq	r3, #14
    840c:	0affffa0 	beq	8294 <hardware_detect+0xbc>
    8410:	e3a00093 	mov	r0, #147	; 0x93
    8414:	e3400092 	movt	r0, #146	; 0x92
    8418:	e1530000 	cmp	r3, r0
    841c:	03a03008 	moveq	r3, #8
    8420:	13a03000 	movne	r3, #0
    8424:	eaffff9a 	b	8294 <hardware_detect+0xbc>
    8428:	e3022082 	movw	r2, #8322	; 0x2082
    842c:	e34020a0 	movt	r2, #160	; 0xa0
    8430:	e1530002 	cmp	r3, r2
    8434:	03a03009 	moveq	r3, #9
    8438:	0affff95 	beq	8294 <hardware_detect+0xbc>
    843c:	e30200a0 	movw	r0, #8352	; 0x20a0
    8440:	e34000a0 	movt	r0, #160	; 0xa0
    8444:	e1530000 	cmp	r3, r0
    8448:	03a0300c 	moveq	r3, #12
    844c:	13a03000 	movne	r3, #0
    8450:	eaffff8f 	b	8294 <hardware_detect+0xbc>
    8454:	e30c2eec 	movw	r2, #52972	; 0xceec
    8458:	e34f2f2f 	movt	r2, #65327	; 0xff2f
    845c:	e0832002 	add	r2, r3, r2
    8460:	e3520002 	cmp	r2, #2
    8464:	33a03010 	movcc	r3, #16
    8468:	23a03000 	movcs	r3, #0
    846c:	eaffff88 	b	8294 <hardware_detect+0xbc>
    8470:	e3a00032 	mov	r0, #50	; 0x32
    8474:	e3400090 	movt	r0, #144	; 0x90
    8478:	e1530000 	cmp	r3, r0
    847c:	03a03004 	moveq	r3, #4
    8480:	13a03000 	movne	r3, #0
    8484:	eaffff82 	b	8294 <hardware_detect+0xbc>
    8488:	e3a000c1 	mov	r0, #193	; 0xc1
    848c:	e3400090 	movt	r0, #144	; 0x90
    8490:	e1530000 	cmp	r3, r0
    8494:	03a0300d 	moveq	r3, #13
    8498:	13a03000 	movne	r3, #0
    849c:	eaffff7c 	b	8294 <hardware_detect+0xbc>
    84a0:	e3032111 	movw	r2, #12561	; 0x3111
    84a4:	e34020a0 	movt	r2, #160	; 0xa0
    84a8:	e1530002 	cmp	r3, r2
    84ac:	0a000005 	beq	84c8 <hardware_detect+0x2f0>
    84b0:	e3010041 	movw	r0, #4161	; 0x1041
    84b4:	e34000a2 	movt	r0, #162	; 0xa2
    84b8:	e1530000 	cmp	r3, r0
    84bc:	03a03007 	moveq	r3, #7
    84c0:	13a03000 	movne	r3, #0
    84c4:	eaffff72 	b	8294 <hardware_detect+0xbc>
    84c8:	e3a03010 	mov	r3, #16
    84cc:	eaffff70 	b	8294 <hardware_detect+0xbc>
    84d0:	e3a03006 	mov	r3, #6
    84d4:	eaffff6e 	b	8294 <hardware_detect+0xbc>
    84d8:	e3a0300a 	mov	r3, #10
    84dc:	eaffff6c 	b	8294 <hardware_detect+0xbc>
    84e0:	e3a0300f 	mov	r3, #15
    84e4:	eaffff6a 	b	8294 <hardware_detect+0xbc>

000084e8 <hardware_print_model>:
    84e8:	e92d4010 	push	{r4, lr}
    84ec:	e1a04000 	mov	r4, r0
    84f0:	e30d00b4 	movw	r0, #53428	; 0xd0b4
    84f4:	e1a01004 	mov	r1, r4
    84f8:	e3400000 	movt	r0, #0
    84fc:	e24dd080 	sub	sp, sp, #128	; 0x80
    8500:	eb00116a 	bl	cab0 <printk>
    8504:	e3003c42 	movw	r3, #3138	; 0xc42
    8508:	e1540003 	cmp	r4, r3
    850c:	e3084000 	movw	r4, #32768	; 0x8000
    8510:	e3404002 	movt	r4, #2
    8514:	030d00cc 	movweq	r0, #53452	; 0xd0cc
    8518:	03400000 	movteq	r0, #0
    851c:	130d00dc 	movwne	r0, #53468	; 0xd0dc
    8520:	13400000 	movtne	r0, #0
    8524:	eb001161 	bl	cab0 <printk>
    8528:	e30d0aec 	movw	r0, #56044	; 0xdaec
    852c:	e3400000 	movt	r0, #0
    8530:	eb00115e 	bl	cab0 <printk>
    8534:	e5943000 	ldr	r3, [r4]
    8538:	e3530000 	cmp	r3, #0
    853c:	1a000019 	bne	85a8 <hardware_print_model+0xc0>
    8540:	e30d0114 	movw	r0, #53524	; 0xd114
    8544:	e3400000 	movt	r0, #0
    8548:	eb001158 	bl	cab0 <printk>
    854c:	e3053400 	movw	r3, #21504	; 0x5400
    8550:	e3403002 	movt	r3, #2
    8554:	e5933000 	ldr	r3, [r3]
    8558:	e2433001 	sub	r3, r3, #1
    855c:	e353000f 	cmp	r3, #15
    8560:	979ff103 	ldrls	pc, [pc, r3, lsl #2]
    8564:	ea00005a 	b	86d4 <hardware_print_model+0x1ec>
    8568:	000085f4 	strdeq	r8, [r0], -r4
    856c:	00008604 	andeq	r8, r0, r4, lsl #12
    8570:	00008614 	andeq	r8, r0, r4, lsl r6
    8574:	00008624 	andeq	r8, r0, r4, lsr #12
    8578:	000086d4 	ldrdeq	r8, [r0], -r4
    857c:	00008634 	andeq	r8, r0, r4, lsr r6
    8580:	00008644 	andeq	r8, r0, r4, asr #12
    8584:	00008654 	andeq	r8, r0, r4, asr r6
    8588:	00008664 	andeq	r8, r0, r4, ror #12
    858c:	00008674 	andeq	r8, r0, r4, ror r6
    8590:	00008684 	andeq	r8, r0, r4, lsl #13
    8594:	00008694 	muleq	r0, r4, r6
    8598:	000086a4 	andeq	r8, r0, r4, lsr #13
    859c:	000086b4 			; <UNDEFINED> instruction: 0x000086b4
    85a0:	000086c4 	andeq	r8, r0, r4, asr #13
    85a4:	000085d4 	ldrdeq	r8, [r0], -r4
    85a8:	e30d10f0 	movw	r1, #53488	; 0xd0f0
    85ac:	e1a0200d 	mov	r2, sp
    85b0:	e3401000 	movt	r1, #0
    85b4:	e3a03080 	mov	r3, #128	; 0x80
    85b8:	e3a00000 	mov	r0, #0
    85bc:	eb000225 	bl	8e58 <devicetree_find_string>
    85c0:	e30d00f8 	movw	r0, #53496	; 0xd0f8
    85c4:	e1a0100d 	mov	r1, sp
    85c8:	e3400000 	movt	r0, #0
    85cc:	eb001137 	bl	cab0 <printk>
    85d0:	eaffffda 	b	8540 <hardware_print_model+0x58>
    85d4:	e30d0194 	movw	r0, #53652	; 0xd194
    85d8:	e3400000 	movt	r0, #0
    85dc:	eb001133 	bl	cab0 <printk>
    85e0:	e30d0aec 	movw	r0, #56044	; 0xdaec
    85e4:	e3400000 	movt	r0, #0
    85e8:	eb001130 	bl	cab0 <printk>
    85ec:	e28dd080 	add	sp, sp, #128	; 0x80
    85f0:	e8bd8010 	pop	{r4, pc}
    85f4:	e30d012c 	movw	r0, #53548	; 0xd12c
    85f8:	e3400000 	movt	r0, #0
    85fc:	eb00112b 	bl	cab0 <printk>
    8600:	eafffff6 	b	85e0 <hardware_print_model+0xf8>
    8604:	e30d0134 	movw	r0, #53556	; 0xd134
    8608:	e3400000 	movt	r0, #0
    860c:	eb001127 	bl	cab0 <printk>
    8610:	eafffff2 	b	85e0 <hardware_print_model+0xf8>
    8614:	e30d0130 	movw	r0, #53552	; 0xd130
    8618:	e3400000 	movt	r0, #0
    861c:	eb001123 	bl	cab0 <printk>
    8620:	eaffffee 	b	85e0 <hardware_print_model+0xf8>
    8624:	e30d0138 	movw	r0, #53560	; 0xd138
    8628:	e3400000 	movt	r0, #0
    862c:	eb00111f 	bl	cab0 <printk>
    8630:	eaffffea 	b	85e0 <hardware_print_model+0xf8>
    8634:	e30d016c 	movw	r0, #53612	; 0xd16c
    8638:	e3400000 	movt	r0, #0
    863c:	eb00111b 	bl	cab0 <printk>
    8640:	eaffffe6 	b	85e0 <hardware_print_model+0xf8>
    8644:	e30d013c 	movw	r0, #53564	; 0xd13c
    8648:	e3400000 	movt	r0, #0
    864c:	eb001117 	bl	cab0 <printk>
    8650:	eaffffe2 	b	85e0 <hardware_print_model+0xf8>
    8654:	e30d0154 	movw	r0, #53588	; 0xd154
    8658:	e3400000 	movt	r0, #0
    865c:	eb001113 	bl	cab0 <printk>
    8660:	eaffffde 	b	85e0 <hardware_print_model+0xf8>
    8664:	e30d0148 	movw	r0, #53576	; 0xd148
    8668:	e3400000 	movt	r0, #0
    866c:	eb00110f 	bl	cab0 <printk>
    8670:	eaffffda 	b	85e0 <hardware_print_model+0xf8>
    8674:	e30d014c 	movw	r0, #53580	; 0xd14c
    8678:	e3400000 	movt	r0, #0
    867c:	eb00110b 	bl	cab0 <printk>
    8680:	eaffffd6 	b	85e0 <hardware_print_model+0xf8>
    8684:	e30d0140 	movw	r0, #53568	; 0xd140
    8688:	e3400000 	movt	r0, #0
    868c:	eb001107 	bl	cab0 <printk>
    8690:	eaffffd2 	b	85e0 <hardware_print_model+0xf8>
    8694:	e30d0180 	movw	r0, #53632	; 0xd180
    8698:	e3400000 	movt	r0, #0
    869c:	eb001103 	bl	cab0 <printk>
    86a0:	eaffffce 	b	85e0 <hardware_print_model+0xf8>
    86a4:	e30d015c 	movw	r0, #53596	; 0xd15c
    86a8:	e3400000 	movt	r0, #0
    86ac:	eb0010ff 	bl	cab0 <printk>
    86b0:	eaffffca 	b	85e0 <hardware_print_model+0xf8>
    86b4:	e30d0164 	movw	r0, #53604	; 0xd164
    86b8:	e3400000 	movt	r0, #0
    86bc:	eb0010fb 	bl	cab0 <printk>
    86c0:	eaffffc6 	b	85e0 <hardware_print_model+0xf8>
    86c4:	e30d0150 	movw	r0, #53584	; 0xd150
    86c8:	e3400000 	movt	r0, #0
    86cc:	eb0010f7 	bl	cab0 <printk>
    86d0:	eaffffc2 	b	85e0 <hardware_print_model+0xf8>
    86d4:	e5941004 	ldr	r1, [r4, #4]
    86d8:	e30d0198 	movw	r0, #53656	; 0xd198
    86dc:	e3400000 	movt	r0, #0
    86e0:	eb0010f2 	bl	cab0 <printk>
    86e4:	eaffffbd 	b	85e0 <hardware_print_model+0xf8>

000086e8 <hardware_print_commandline>:
    86e8:	e92d4010 	push	{r4, lr}
    86ec:	e3084000 	movw	r4, #32768	; 0x8000
    86f0:	e3404002 	movt	r4, #2
    86f4:	e30d01a4 	movw	r0, #53668	; 0xd1a4
    86f8:	e3400000 	movt	r0, #0
    86fc:	eb0010eb 	bl	cab0 <printk>
    8700:	e5943000 	ldr	r3, [r4]
    8704:	e3530000 	cmp	r3, #0
    8708:	08bd8010 	popeq	{r4, pc}
    870c:	e30d11c4 	movw	r1, #53700	; 0xd1c4
    8710:	e30d01d0 	movw	r0, #53712	; 0xd1d0
    8714:	e3401000 	movt	r1, #0
    8718:	e2842008 	add	r2, r4, #8
    871c:	e3400000 	movt	r0, #0
    8720:	e3a03b01 	mov	r3, #1024	; 0x400
    8724:	eb0001cb 	bl	8e58 <devicetree_find_string>
    8728:	e30d0b88 	movw	r0, #56200	; 0xdb88
    872c:	e2841008 	add	r1, r4, #8
    8730:	e3400000 	movt	r0, #0
    8734:	e8bd4010 	pop	{r4, lr}
    8738:	ea0010dc 	b	cab0 <printk>

0000873c <hardware_get_type>:
    873c:	e3053400 	movw	r3, #21504	; 0x5400
    8740:	e3403002 	movt	r3, #2
    8744:	e5930000 	ldr	r0, [r3]
    8748:	e12fff1e 	bx	lr

0000874c <hardware_get_memory>:
    874c:	e3083000 	movw	r3, #32768	; 0x8000
    8750:	e3403002 	movt	r3, #2
    8754:	e92d4070 	push	{r4, r5, r6, lr}
    8758:	e1a05000 	mov	r5, r0
    875c:	e5936000 	ldr	r6, [r3]
    8760:	e1a04001 	mov	r4, r1
    8764:	e3560000 	cmp	r6, #0
    8768:	1a000006 	bne	8788 <hardware_get_memory+0x3c>
    876c:	e30d01d8 	movw	r0, #53720	; 0xd1d8
    8770:	e3400000 	movt	r0, #0
    8774:	eb0010cd 	bl	cab0 <printk>
    8778:	e5856000 	str	r6, [r5]
    877c:	e3a03201 	mov	r3, #268435456	; 0x10000000
    8780:	e5843000 	str	r3, [r4]
    8784:	e8bd8070 	pop	{r4, r5, r6, pc}
    8788:	e3a03000 	mov	r3, #0
    878c:	e5803000 	str	r3, [r0]
    8790:	eb0001ed 	bl	8f4c <devicetree_get_memory>
    8794:	e5840000 	str	r0, [r4]
    8798:	e8bd8070 	pop	{r4, r5, r6, pc}

0000879c <hardware_setup_vars>:
    879c:	e3053400 	movw	r3, #21504	; 0x5400
    87a0:	e3403002 	movt	r3, #2
    87a4:	e5933000 	ldr	r3, [r3]
    87a8:	e2433001 	sub	r3, r3, #1
    87ac:	e353000f 	cmp	r3, #15
    87b0:	979ff103 	ldrls	pc, [pc, r3, lsl #2]
    87b4:	ea000034 	b	888c <hardware_setup_vars+0xf0>
    87b8:	00008820 	andeq	r8, r0, r0, lsr #16
    87bc:	0000880c 	andeq	r8, r0, ip, lsl #16
    87c0:	00008820 	andeq	r8, r0, r0, lsr #16
    87c4:	0000880c 	andeq	r8, r0, ip, lsl #16
    87c8:	0000888c 	andeq	r8, r0, ip, lsl #17
    87cc:	0000880c 	andeq	r8, r0, ip, lsl #16
    87d0:	000087f8 	strdeq	r8, [r0], -r8	; <UNPREDICTABLE>
    87d4:	0000880c 	andeq	r8, r0, ip, lsl #16
    87d8:	000087f8 	strdeq	r8, [r0], -r8	; <UNPREDICTABLE>
    87dc:	00008844 	andeq	r8, r0, r4, asr #16
    87e0:	000087f8 	strdeq	r8, [r0], -r8	; <UNPREDICTABLE>
    87e4:	000087f8 	strdeq	r8, [r0], -r8	; <UNPREDICTABLE>
    87e8:	0000880c 	andeq	r8, r0, ip, lsl #16
    87ec:	000087f8 	strdeq	r8, [r0], -r8	; <UNPREDICTABLE>
    87f0:	00008844 	andeq	r8, r0, r4, asr #16
    87f4:	00008868 	andeq	r8, r0, r8, ror #16
    87f8:	e300358c 	movw	r3, #1420	; 0x58c
    87fc:	e3a0243f 	mov	r2, #1056964608	; 0x3f000000
    8800:	e3403003 	movt	r3, #3
    8804:	e5832000 	str	r2, [r3]
    8808:	e12fff1e 	bx	lr
    880c:	e300358c 	movw	r3, #1420	; 0x58c
    8810:	e3a02202 	mov	r2, #536870912	; 0x20000000
    8814:	e3403003 	movt	r3, #3
    8818:	e5832000 	str	r2, [r3]
    881c:	e12fff1e 	bx	lr
    8820:	e300258c 	movw	r2, #1420	; 0x58c
    8824:	e3083000 	movw	r3, #32768	; 0x8000
    8828:	e3402003 	movt	r2, #3
    882c:	e3a00202 	mov	r0, #536870912	; 0x20000000
    8830:	e3403002 	movt	r3, #2
    8834:	e3a01010 	mov	r1, #16
    8838:	e5820000 	str	r0, [r2]
    883c:	e5831408 	str	r1, [r3, #1032]	; 0x408
    8840:	e12fff1e 	bx	lr
    8844:	e300258c 	movw	r2, #1420	; 0x58c
    8848:	e3083000 	movw	r3, #32768	; 0x8000
    884c:	e3402003 	movt	r2, #3
    8850:	e3a0043f 	mov	r0, #1056964608	; 0x3f000000
    8854:	e3403002 	movt	r3, #2
    8858:	e3a0101d 	mov	r1, #29
    885c:	e5820000 	str	r0, [r2]
    8860:	e5831408 	str	r1, [r3, #1032]	; 0x408
    8864:	e12fff1e 	bx	lr
    8868:	e3082000 	movw	r2, #32768	; 0x8000
    886c:	e300358c 	movw	r3, #1420	; 0x58c
    8870:	e3402002 	movt	r2, #2
    8874:	e3a0002a 	mov	r0, #42	; 0x2a
    8878:	e3403003 	movt	r3, #3
    887c:	e3a014fe 	mov	r1, #-33554432	; 0xfe000000
    8880:	e5820408 	str	r0, [r2, #1032]	; 0x408
    8884:	e5831000 	str	r1, [r3]
    8888:	e12fff1e 	bx	lr
    888c:	e300358c 	movw	r3, #1420	; 0x58c
    8890:	e3a024fe 	mov	r2, #-33554432	; 0xfe000000
    8894:	e3403003 	movt	r3, #3
    8898:	e5832000 	str	r2, [r3]
    889c:	e12fff1e 	bx	lr

000088a0 <big_to_little64>:
    88a0:	e1a02821 	lsr	r2, r1, #16
    88a4:	e20138ff 	and	r3, r1, #16711680	; 0xff0000
    88a8:	e92d4010 	push	{r4, lr}
    88ac:	e2022cff 	and	r2, r2, #65280	; 0xff00
    88b0:	e7e7c850 	ubfx	ip, r0, #16, #8
    88b4:	e2004cff 	and	r4, r0, #65280	; 0xff00
    88b8:	e1a0e801 	lsl	lr, r1, #16
    88bc:	e1822003 	orr	r2, r2, r3
    88c0:	e20ee4ff 	and	lr, lr, #-16777216	; 0xff000000
    88c4:	e18ccc20 	orr	ip, ip, r0, lsr #24
    88c8:	e1a03800 	lsl	r3, r0, #16
    88cc:	e182200e 	orr	r2, r2, lr
    88d0:	e20338ff 	and	r3, r3, #16711680	; 0xff0000
    88d4:	e18cc004 	orr	ip, ip, r4
    88d8:	e1820c01 	orr	r0, r2, r1, lsl #24
    88dc:	e18c1003 	orr	r1, ip, r3
    88e0:	e8bd8010 	pop	{r4, pc}

000088e4 <devicetree_prop_int>:
    88e4:	e3003590 	movw	r3, #1424	; 0x590
    88e8:	e3403003 	movt	r3, #3
    88ec:	e5932004 	ldr	r2, [r3, #4]
    88f0:	e3520000 	cmp	r2, #0
    88f4:	0a000013 	beq	8948 <devicetree_prop_int+0x64>
    88f8:	e5932000 	ldr	r2, [r3]
    88fc:	e5933010 	ldr	r3, [r3, #16]
    8900:	e0823003 	add	r3, r2, r3
    8904:	e083c100 	add	ip, r3, r0, lsl #2
    8908:	e7932100 	ldr	r2, [r3, r0, lsl #2]
    890c:	e59c3008 	ldr	r3, [ip, #8]
    8910:	e6bfcf32 	rev	ip, r2
    8914:	e3520301 	cmp	r2, #67108864	; 0x4000000
    8918:	e6bf3f33 	rev	r3, r3
    891c:	e5813000 	str	r3, [r1]
    8920:	1a000001 	bne	892c <devicetree_prop_int+0x48>
    8924:	e3a00000 	mov	r0, #0
    8928:	e12fff1e 	bx	lr
    892c:	e30d0208 	movw	r0, #53768	; 0xd208
    8930:	e1a0100c 	mov	r1, ip
    8934:	e92d4010 	push	{r4, lr}
    8938:	e3400000 	movt	r0, #0
    893c:	eb00105b 	bl	cab0 <printk>
    8940:	e3a00000 	mov	r0, #0
    8944:	e8bd8010 	pop	{r4, pc}
    8948:	e3e00012 	mvn	r0, #18
    894c:	e12fff1e 	bx	lr

00008950 <dt_parse_node>:
    8950:	e92d4ff0 	push	{r4, r5, r6, r7, r8, r9, sl, fp, lr}
    8954:	e1a06000 	mov	r6, r0
    8958:	e5910000 	ldr	r0, [r1]
    895c:	e1a05001 	mov	r5, r1
    8960:	e24ddf45 	sub	sp, sp, #276	; 0x114
    8964:	e7961100 	ldr	r1, [r6, r0, lsl #2]
    8968:	e1cd20f0 	strd	r2, [sp]
    896c:	e3510401 	cmp	r1, #16777216	; 0x1000000
    8970:	1a00007f 	bne	8b74 <dt_parse_node+0x224>
    8974:	e1a03100 	lsl	r3, r0, #2
    8978:	e2800001 	add	r0, r0, #1
    897c:	e5850000 	str	r0, [r5]
    8980:	e2831004 	add	r1, r3, #4
    8984:	e0861001 	add	r1, r6, r1
    8988:	e28d0010 	add	r0, sp, #16
    898c:	e3a02080 	mov	r2, #128	; 0x80
    8990:	eb0010b1 	bl	cc5c <strlcpy>
    8994:	e5954000 	ldr	r4, [r5]
    8998:	e0863104 	add	r3, r6, r4, lsl #2
    899c:	e4937004 	ldr	r7, [r3], #4
    89a0:	e2844001 	add	r4, r4, #1
    89a4:	e6bf7f37 	rev	r7, r7
    89a8:	e21770ff 	ands	r7, r7, #255	; 0xff
    89ac:	1afffffa 	bne	899c <dt_parse_node+0x4c>
    89b0:	e5854000 	str	r4, [r5]
    89b4:	e30d9258 	movw	r9, #53848	; 0xd258
    89b8:	e3409000 	movt	r9, #0
    89bc:	e300b590 	movw	fp, #1424	; 0x590
    89c0:	e340b003 	movt	fp, #3
    89c4:	e7963104 	ldr	r3, [r6, r4, lsl #2]
    89c8:	e1a02104 	lsl	r2, r4, #2
    89cc:	e6bf1f33 	rev	r1, r3
    89d0:	e3530301 	cmp	r3, #67108864	; 0x4000000
    89d4:	0a000008 	beq	89fc <dt_parse_node+0xac>
    89d8:	e3510003 	cmp	r1, #3
    89dc:	0a000009 	beq	8a08 <dt_parse_node+0xb8>
    89e0:	e3510001 	cmp	r1, #1
    89e4:	0a00004d 	beq	8b20 <dt_parse_node+0x1d0>
    89e8:	e3510002 	cmp	r1, #2
    89ec:	0a000055 	beq	8b48 <dt_parse_node+0x1f8>
    89f0:	e1a00009 	mov	r0, r9
    89f4:	eb00102d 	bl	cab0 <printk>
    89f8:	e5954000 	ldr	r4, [r5]
    89fc:	e2844001 	add	r4, r4, #1
    8a00:	e5854000 	str	r4, [r5]
    8a04:	eaffffee 	b	89c4 <dt_parse_node+0x74>
    8a08:	e0862002 	add	r2, r6, r2
    8a0c:	e284c002 	add	ip, r4, #2
    8a10:	e59b0014 	ldr	r0, [fp, #20]
    8a14:	e2844001 	add	r4, r4, #1
    8a18:	e5923008 	ldr	r3, [r2, #8]
    8a1c:	e59b1000 	ldr	r1, [fp]
    8a20:	e6bf3f33 	rev	r3, r3
    8a24:	e0830000 	add	r0, r3, r0
    8a28:	e5928004 	ldr	r8, [r2, #4]
    8a2c:	e3a02080 	mov	r2, #128	; 0x80
    8a30:	e0811000 	add	r1, r1, r0
    8a34:	e28d0090 	add	r0, sp, #144	; 0x90
    8a38:	e585c000 	str	ip, [r5]
    8a3c:	e3a0c000 	mov	ip, #0
    8a40:	e58d300c 	str	r3, [sp, #12]
    8a44:	e5cdc094 	strb	ip, [sp, #148]	; 0x94
    8a48:	eb001083 	bl	cc5c <strlcpy>
    8a4c:	e59d3000 	ldr	r3, [sp]
    8a50:	e6bf8f38 	rev	r8, r8
    8a54:	e3530000 	cmp	r3, #0
    8a58:	0a000005 	beq	8a74 <dt_parse_node+0x124>
    8a5c:	e59d0000 	ldr	r0, [sp]
    8a60:	e3a02080 	mov	r2, #128	; 0x80
    8a64:	e28d1010 	add	r1, sp, #16
    8a68:	eb001040 	bl	cb70 <strncmp>
    8a6c:	e3500000 	cmp	r0, #0
    8a70:	1a000005 	bne	8a8c <dt_parse_node+0x13c>
    8a74:	e59d1004 	ldr	r1, [sp, #4]
    8a78:	e3a02080 	mov	r2, #128	; 0x80
    8a7c:	e28d0090 	add	r0, sp, #144	; 0x90
    8a80:	eb00103a 	bl	cb70 <strncmp>
    8a84:	e3500000 	cmp	r0, #0
    8a88:	0a000033 	beq	8b5c <dt_parse_node+0x20c>
    8a8c:	e5954000 	ldr	r4, [r5]
    8a90:	e2888003 	add	r8, r8, #3
    8a94:	e1b08128 	lsrs	r8, r8, #2
    8a98:	e2844001 	add	r4, r4, #1
    8a9c:	e5854000 	str	r4, [r5]
    8aa0:	0affffc7 	beq	89c4 <dt_parse_node+0x74>
    8aa4:	e1a03004 	mov	r3, r4
    8aa8:	e3a0a000 	mov	sl, #0
    8aac:	ea000000 	b	8ab4 <dt_parse_node+0x164>
    8ab0:	e5953000 	ldr	r3, [r5]
    8ab4:	e7962103 	ldr	r2, [r6, r3, lsl #2]
    8ab8:	e2833001 	add	r3, r3, #1
    8abc:	e5853000 	str	r3, [r5]
    8ac0:	e28aa001 	add	sl, sl, #1
    8ac4:	e58d200c 	str	r2, [sp, #12]
    8ac8:	e28d100c 	add	r1, sp, #12
    8acc:	e3a02004 	mov	r2, #4
    8ad0:	e28d0090 	add	r0, sp, #144	; 0x90
    8ad4:	eb000e74 	bl	c4ac <memcpy>
    8ad8:	e15a0008 	cmp	sl, r8
    8adc:	1afffff3 	bne	8ab0 <dt_parse_node+0x160>
    8ae0:	e3a0a000 	mov	sl, #0
    8ae4:	ea000000 	b	8aec <dt_parse_node+0x19c>
    8ae8:	e5954000 	ldr	r4, [r5]
    8aec:	e7963104 	ldr	r3, [r6, r4, lsl #2]
    8af0:	e2844001 	add	r4, r4, #1
    8af4:	e5854000 	str	r4, [r5]
    8af8:	e28aa001 	add	sl, sl, #1
    8afc:	e58d300c 	str	r3, [sp, #12]
    8b00:	e3a02004 	mov	r2, #4
    8b04:	e28d100c 	add	r1, sp, #12
    8b08:	e28d0090 	add	r0, sp, #144	; 0x90
    8b0c:	eb000e66 	bl	c4ac <memcpy>
    8b10:	e15a0008 	cmp	sl, r8
    8b14:	1afffff3 	bne	8ae8 <dt_parse_node+0x198>
    8b18:	e5954000 	ldr	r4, [r5]
    8b1c:	eaffffa8 	b	89c4 <dt_parse_node+0x74>
    8b20:	e1cd20d0 	ldrd	r2, [sp]
    8b24:	e1a01005 	mov	r1, r5
    8b28:	e1a00006 	mov	r0, r6
    8b2c:	ebffff87 	bl	8950 <dt_parse_node>
    8b30:	e3500000 	cmp	r0, #0
    8b34:	0afffff7 	beq	8b18 <dt_parse_node+0x1c8>
    8b38:	e1a07000 	mov	r7, r0
    8b3c:	e1a00007 	mov	r0, r7
    8b40:	e28ddf45 	add	sp, sp, #276	; 0x114
    8b44:	e8bd8ff0 	pop	{r4, r5, r6, r7, r8, r9, sl, fp, pc}
    8b48:	e2844001 	add	r4, r4, #1
    8b4c:	e1a00007 	mov	r0, r7
    8b50:	e5854000 	str	r4, [r5]
    8b54:	e28ddf45 	add	sp, sp, #276	; 0x114
    8b58:	e8bd8ff0 	pop	{r4, r5, r6, r7, r8, r9, sl, fp, pc}
    8b5c:	e3540000 	cmp	r4, #0
    8b60:	0affffec 	beq	8b18 <dt_parse_node+0x1c8>
    8b64:	e1a07004 	mov	r7, r4
    8b68:	e1a00007 	mov	r0, r7
    8b6c:	e28ddf45 	add	sp, sp, #276	; 0x114
    8b70:	e8bd8ff0 	pop	{r4, r5, r6, r7, r8, r9, sl, fp, pc}
    8b74:	e30d0234 	movw	r0, #53812	; 0xd234
    8b78:	e3e07000 	mvn	r7, #0
    8b7c:	e3400000 	movt	r0, #0
    8b80:	eb000fca 	bl	cab0 <printk>
    8b84:	e5953000 	ldr	r3, [r5]
    8b88:	e1a00007 	mov	r0, r7
    8b8c:	e2833001 	add	r3, r3, #1
    8b90:	e5853000 	str	r3, [r5]
    8b94:	e28ddf45 	add	sp, sp, #276	; 0x114
    8b98:	e8bd8ff0 	pop	{r4, r5, r6, r7, r8, r9, sl, fp, pc}

00008b9c <devicetree_find_node_prop>:
    8b9c:	e92d40f0 	push	{r4, r5, r6, r7, lr}
    8ba0:	e3004590 	movw	r4, #1424	; 0x590
    8ba4:	e3404003 	movt	r4, #3
    8ba8:	e24dd00c 	sub	sp, sp, #12
    8bac:	e594c004 	ldr	ip, [r4, #4]
    8bb0:	e35c0000 	cmp	ip, #0
    8bb4:	0a00001d 	beq	8c30 <devicetree_find_node_prop+0x94>
    8bb8:	e5945000 	ldr	r5, [r4]
    8bbc:	e3a02000 	mov	r2, #0
    8bc0:	e5943010 	ldr	r3, [r4, #16]
    8bc4:	e1a06000 	mov	r6, r0
    8bc8:	e58d2004 	str	r2, [sp, #4]
    8bcc:	e1a07001 	mov	r7, r1
    8bd0:	e0855003 	add	r5, r5, r3
    8bd4:	ea000009 	b	8c00 <devicetree_find_node_prop+0x64>
    8bd8:	e59dc004 	ldr	ip, [sp, #4]
    8bdc:	e795310c 	ldr	r3, [r5, ip, lsl #2]
    8be0:	e1a0c10c 	lsl	ip, ip, #2
    8be4:	e3530409 	cmp	r3, #150994944	; 0x9000000
    8be8:	0a00000d 	beq	8c24 <devicetree_find_node_prop+0x88>
    8bec:	e5942010 	ldr	r2, [r4, #16]
    8bf0:	e594300c 	ldr	r3, [r4, #12]
    8bf4:	e08cc002 	add	ip, ip, r2
    8bf8:	e15c0003 	cmp	ip, r3
    8bfc:	8a000008 	bhi	8c24 <devicetree_find_node_prop+0x88>
    8c00:	e1a03007 	mov	r3, r7
    8c04:	e1a02006 	mov	r2, r6
    8c08:	e28d1004 	add	r1, sp, #4
    8c0c:	e1a00005 	mov	r0, r5
    8c10:	ebffff4e 	bl	8950 <dt_parse_node>
    8c14:	e3500000 	cmp	r0, #0
    8c18:	0affffee 	beq	8bd8 <devicetree_find_node_prop+0x3c>
    8c1c:	e28dd00c 	add	sp, sp, #12
    8c20:	e8bd80f0 	pop	{r4, r5, r6, r7, pc}
    8c24:	e3e00001 	mvn	r0, #1
    8c28:	e28dd00c 	add	sp, sp, #12
    8c2c:	e8bd80f0 	pop	{r4, r5, r6, r7, pc}
    8c30:	e3e00012 	mvn	r0, #18
    8c34:	eafffff8 	b	8c1c <devicetree_find_node_prop+0x80>

00008c38 <devicetree_setup>:
    8c38:	e3003590 	movw	r3, #1424	; 0x590
    8c3c:	e3a01000 	mov	r1, #0
    8c40:	e3403003 	movt	r3, #3
    8c44:	e30fceed 	movw	ip, #65261	; 0xfeed
    8c48:	e34dc00d 	movt	ip, #53261	; 0xd00d
    8c4c:	e5831004 	str	r1, [r3, #4]
    8c50:	e5902000 	ldr	r2, [r0]
    8c54:	e6bf2f32 	rev	r2, r2
    8c58:	e152000c 	cmp	r2, ip
    8c5c:	e5832008 	str	r2, [r3, #8]
    8c60:	1a000022 	bne	8cf0 <devicetree_setup+0xb8>
    8c64:	e5830000 	str	r0, [r3]
    8c68:	e3a02001 	mov	r2, #1
    8c6c:	e5832004 	str	r2, [r3, #4]
    8c70:	e5902004 	ldr	r2, [r0, #4]
    8c74:	e6bf2f32 	rev	r2, r2
    8c78:	e583200c 	str	r2, [r3, #12]
    8c7c:	e5902008 	ldr	r2, [r0, #8]
    8c80:	e6bf2f32 	rev	r2, r2
    8c84:	e5832010 	str	r2, [r3, #16]
    8c88:	e590200c 	ldr	r2, [r0, #12]
    8c8c:	e6bf2f32 	rev	r2, r2
    8c90:	e5832014 	str	r2, [r3, #20]
    8c94:	e5902010 	ldr	r2, [r0, #16]
    8c98:	e6bf2f32 	rev	r2, r2
    8c9c:	e5832018 	str	r2, [r3, #24]
    8ca0:	e5902014 	ldr	r2, [r0, #20]
    8ca4:	e6bf2f32 	rev	r2, r2
    8ca8:	e583201c 	str	r2, [r3, #28]
    8cac:	e3520001 	cmp	r2, #1
    8cb0:	e590c018 	ldr	ip, [r0, #24]
    8cb4:	e6bfcf3c 	rev	ip, ip
    8cb8:	e583c020 	str	ip, [r3, #32]
    8cbc:	9a000009 	bls	8ce8 <devicetree_setup+0xb0>
    8cc0:	e590c01c 	ldr	ip, [r0, #28]
    8cc4:	e3520002 	cmp	r2, #2
    8cc8:	e6bf2f3c 	rev	r2, ip
    8ccc:	e5832024 	str	r2, [r3, #36]	; 0x24
    8cd0:	0a000004 	beq	8ce8 <devicetree_setup+0xb0>
    8cd4:	e5902020 	ldr	r2, [r0, #32]
    8cd8:	e1a00001 	mov	r0, r1
    8cdc:	e6bf2f32 	rev	r2, r2
    8ce0:	e5832028 	str	r2, [r3, #40]	; 0x28
    8ce4:	e12fff1e 	bx	lr
    8ce8:	e3a00000 	mov	r0, #0
    8cec:	e12fff1e 	bx	lr
    8cf0:	e3e00012 	mvn	r0, #18
    8cf4:	e12fff1e 	bx	lr

00008cf8 <devicetree_find_reserved>:
    8cf8:	e92d43f0 	push	{r4, r5, r6, r7, r8, r9, lr}
    8cfc:	e3005590 	movw	r5, #1424	; 0x590
    8d00:	e3405003 	movt	r5, #3
    8d04:	e24dd00c 	sub	sp, sp, #12
    8d08:	e5953004 	ldr	r3, [r5, #4]
    8d0c:	e3530000 	cmp	r3, #0
    8d10:	0a00004e 	beq	8e50 <devicetree_find_reserved+0x158>
    8d14:	e30d0268 	movw	r0, #53864	; 0xd268
    8d18:	e3400000 	movt	r0, #0
    8d1c:	eb000f63 	bl	cab0 <printk>
    8d20:	e5951008 	ldr	r1, [r5, #8]
    8d24:	e30d0278 	movw	r0, #53880	; 0xd278
    8d28:	e3400000 	movt	r0, #0
    8d2c:	eb000f5f 	bl	cab0 <printk>
    8d30:	e595100c 	ldr	r1, [r5, #12]
    8d34:	e30d0288 	movw	r0, #53896	; 0xd288
    8d38:	e3400000 	movt	r0, #0
    8d3c:	eb000f5b 	bl	cab0 <printk>
    8d40:	e5951010 	ldr	r1, [r5, #16]
    8d44:	e30d029c 	movw	r0, #53916	; 0xd29c
    8d48:	e3400000 	movt	r0, #0
    8d4c:	eb000f57 	bl	cab0 <printk>
    8d50:	e5951014 	ldr	r1, [r5, #20]
    8d54:	e30d02b0 	movw	r0, #53936	; 0xd2b0
    8d58:	e3400000 	movt	r0, #0
    8d5c:	eb000f53 	bl	cab0 <printk>
    8d60:	e5951018 	ldr	r1, [r5, #24]
    8d64:	e30d02c4 	movw	r0, #53956	; 0xd2c4
    8d68:	e3400000 	movt	r0, #0
    8d6c:	eb000f4f 	bl	cab0 <printk>
    8d70:	e595101c 	ldr	r1, [r5, #28]
    8d74:	e30d02d8 	movw	r0, #53976	; 0xd2d8
    8d78:	e3400000 	movt	r0, #0
    8d7c:	eb000f4b 	bl	cab0 <printk>
    8d80:	e5951020 	ldr	r1, [r5, #32]
    8d84:	e30d02ec 	movw	r0, #53996	; 0xd2ec
    8d88:	e3400000 	movt	r0, #0
    8d8c:	eb000f47 	bl	cab0 <printk>
    8d90:	e595301c 	ldr	r3, [r5, #28]
    8d94:	e3530001 	cmp	r3, #1
    8d98:	8a000020 	bhi	8e20 <devicetree_find_reserved+0x128>
    8d9c:	e5956018 	ldr	r6, [r5, #24]
    8da0:	e30d0320 	movw	r0, #54048	; 0xd320
    8da4:	e5954000 	ldr	r4, [r5]
    8da8:	e30d7334 	movw	r7, #54068	; 0xd334
    8dac:	e3400000 	movt	r0, #0
    8db0:	e2866008 	add	r6, r6, #8
    8db4:	e3407000 	movt	r7, #0
    8db8:	eb000f3c 	bl	cab0 <printk>
    8dbc:	e0844006 	add	r4, r4, r6
    8dc0:	ea00000d 	b	8dfc <devicetree_find_reserved+0x104>
    8dc4:	e2844010 	add	r4, r4, #16
    8dc8:	ebfffeb4 	bl	88a0 <big_to_little64>
    8dcc:	e1a06000 	mov	r6, r0
    8dd0:	e1a05001 	mov	r5, r1
    8dd4:	e1a00008 	mov	r0, r8
    8dd8:	e1a01009 	mov	r1, r9
    8ddc:	ebfffeaf 	bl	88a0 <big_to_little64>
    8de0:	e1a08000 	mov	r8, r0
    8de4:	e1a09001 	mov	r9, r1
    8de8:	e1a02006 	mov	r2, r6
    8dec:	e1a03005 	mov	r3, r5
    8df0:	e1a00007 	mov	r0, r7
    8df4:	e1cd80f0 	strd	r8, [sp]
    8df8:	eb000f2c 	bl	cab0 <printk>
    8dfc:	e14480d8 	ldrd	r8, [r4, #-8]
    8e00:	e1c400d0 	ldrd	r0, [r4]
    8e04:	e1983009 	orrs	r3, r8, r9
    8e08:	1affffed 	bne	8dc4 <devicetree_find_reserved+0xcc>
    8e0c:	e1903001 	orrs	r3, r0, r1
    8e10:	1affffeb 	bne	8dc4 <devicetree_find_reserved+0xcc>
    8e14:	e3a00000 	mov	r0, #0
    8e18:	e28dd00c 	add	sp, sp, #12
    8e1c:	e8bd83f0 	pop	{r4, r5, r6, r7, r8, r9, pc}
    8e20:	e5951024 	ldr	r1, [r5, #36]	; 0x24
    8e24:	e30d0300 	movw	r0, #54016	; 0xd300
    8e28:	e3400000 	movt	r0, #0
    8e2c:	eb000f1f 	bl	cab0 <printk>
    8e30:	e595301c 	ldr	r3, [r5, #28]
    8e34:	e3530002 	cmp	r3, #2
    8e38:	9affffd7 	bls	8d9c <devicetree_find_reserved+0xa4>
    8e3c:	e5951028 	ldr	r1, [r5, #40]	; 0x28
    8e40:	e30d0310 	movw	r0, #54032	; 0xd310
    8e44:	e3400000 	movt	r0, #0
    8e48:	eb000f18 	bl	cab0 <printk>
    8e4c:	eaffffd2 	b	8d9c <devicetree_find_reserved+0xa4>
    8e50:	e3e00012 	mvn	r0, #18
    8e54:	eaffffef 	b	8e18 <devicetree_find_reserved+0x120>

00008e58 <devicetree_find_string>:
    8e58:	e92d4010 	push	{r4, lr}
    8e5c:	e1a04002 	mov	r4, r2
    8e60:	ebffff4d 	bl	8b9c <devicetree_find_node_prop>
    8e64:	e3003590 	movw	r3, #1424	; 0x590
    8e68:	e3403003 	movt	r3, #3
    8e6c:	e5932004 	ldr	r2, [r3, #4]
    8e70:	e3520000 	cmp	r2, #0
    8e74:	0a00000f 	beq	8eb8 <devicetree_find_string+0x60>
    8e78:	e5932000 	ldr	r2, [r3]
    8e7c:	e5933010 	ldr	r3, [r3, #16]
    8e80:	e0822003 	add	r2, r2, r3
    8e84:	e0823100 	add	r3, r2, r0, lsl #2
    8e88:	e7921100 	ldr	r1, [r2, r0, lsl #2]
    8e8c:	e2833008 	add	r3, r3, #8
    8e90:	e6bf1f31 	rev	r1, r1
    8e94:	e3510000 	cmp	r1, #0
    8e98:	0a000006 	beq	8eb8 <devicetree_find_string+0x60>
    8e9c:	e2433001 	sub	r3, r3, #1
    8ea0:	e2444001 	sub	r4, r4, #1
    8ea4:	e0831001 	add	r1, r3, r1
    8ea8:	e5f32001 	ldrb	r2, [r3, #1]!
    8eac:	e1530001 	cmp	r3, r1
    8eb0:	e5e42001 	strb	r2, [r4, #1]!
    8eb4:	1afffffb 	bne	8ea8 <devicetree_find_string+0x50>
    8eb8:	e3a00000 	mov	r0, #0
    8ebc:	e8bd8010 	pop	{r4, pc}

00008ec0 <devicetree_find_int>:
    8ec0:	e92d4010 	push	{r4, lr}
    8ec4:	e1a04002 	mov	r4, r2
    8ec8:	ebffff33 	bl	8b9c <devicetree_find_node_prop>
    8ecc:	e1a01004 	mov	r1, r4
    8ed0:	ebfffe83 	bl	88e4 <devicetree_prop_int>
    8ed4:	e3a00000 	mov	r0, #0
    8ed8:	e8bd8010 	pop	{r4, pc}

00008edc <devicetree_find_int64>:
    8edc:	e92d4010 	push	{r4, lr}
    8ee0:	e1a04002 	mov	r4, r2
    8ee4:	ebffff2c 	bl	8b9c <devicetree_find_node_prop>
    8ee8:	e3003590 	movw	r3, #1424	; 0x590
    8eec:	e3403003 	movt	r3, #3
    8ef0:	e5932004 	ldr	r2, [r3, #4]
    8ef4:	e3520000 	cmp	r2, #0
    8ef8:	0a00000c 	beq	8f30 <devicetree_find_int64+0x54>
    8efc:	e5932000 	ldr	r2, [r3]
    8f00:	e5933010 	ldr	r3, [r3, #16]
    8f04:	e0823003 	add	r3, r2, r3
    8f08:	e083c100 	add	ip, r3, r0, lsl #2
    8f0c:	e7931100 	ldr	r1, [r3, r0, lsl #2]
    8f10:	e1cc20d8 	ldrd	r2, [ip, #8]
    8f14:	e3510302 	cmp	r1, #134217728	; 0x8000000
    8f18:	e6bf2f32 	rev	r2, r2
    8f1c:	e6bf3f33 	rev	r3, r3
    8f20:	e6bf1f31 	rev	r1, r1
    8f24:	e5842004 	str	r2, [r4, #4]
    8f28:	e5843000 	str	r3, [r4]
    8f2c:	1a000001 	bne	8f38 <devicetree_find_int64+0x5c>
    8f30:	e3a00000 	mov	r0, #0
    8f34:	e8bd8010 	pop	{r4, pc}
    8f38:	e30d0360 	movw	r0, #54112	; 0xd360
    8f3c:	e3400000 	movt	r0, #0
    8f40:	eb000eda 	bl	cab0 <printk>
    8f44:	e3a00000 	mov	r0, #0
    8f48:	e8bd8010 	pop	{r4, pc}

00008f4c <devicetree_get_memory>:
    8f4c:	e30d138c 	movw	r1, #54156	; 0xd38c
    8f50:	e3a00000 	mov	r0, #0
    8f54:	e92d43f0 	push	{r4, r5, r6, r7, r8, r9, lr}
    8f58:	e24dd02c 	sub	sp, sp, #44	; 0x2c
    8f5c:	e3401000 	movt	r1, #0
    8f60:	e3006590 	movw	r6, #1424	; 0x590
    8f64:	e3406003 	movt	r6, #3
    8f68:	ebffff0b 	bl	8b9c <devicetree_find_node_prop>
    8f6c:	e28d1014 	add	r1, sp, #20
    8f70:	ebfffe5b 	bl	88e4 <devicetree_prop_int>
    8f74:	e59d1014 	ldr	r1, [sp, #20]
    8f78:	e30d039c 	movw	r0, #54172	; 0xd39c
    8f7c:	e3400000 	movt	r0, #0
    8f80:	eb000eca 	bl	cab0 <printk>
    8f84:	e30d13b8 	movw	r1, #54200	; 0xd3b8
    8f88:	e3a00000 	mov	r0, #0
    8f8c:	e3401000 	movt	r1, #0
    8f90:	ebffff01 	bl	8b9c <devicetree_find_node_prop>
    8f94:	e28d1018 	add	r1, sp, #24
    8f98:	ebfffe51 	bl	88e4 <devicetree_prop_int>
    8f9c:	e59d1018 	ldr	r1, [sp, #24]
    8fa0:	e30d03c4 	movw	r0, #54212	; 0xd3c4
    8fa4:	e3400000 	movt	r0, #0
    8fa8:	eb000ec0 	bl	cab0 <printk>
    8fac:	e30d13e0 	movw	r1, #54240	; 0xd3e0
    8fb0:	e30d03e4 	movw	r0, #54244	; 0xd3e4
    8fb4:	e3401000 	movt	r1, #0
    8fb8:	e3400000 	movt	r0, #0
    8fbc:	ebfffef6 	bl	8b9c <devicetree_find_node_prop>
    8fc0:	e5963010 	ldr	r3, [r6, #16]
    8fc4:	e1a04000 	mov	r4, r0
    8fc8:	e5965000 	ldr	r5, [r6]
    8fcc:	e2809002 	add	r9, r0, #2
    8fd0:	e1a07100 	lsl	r7, r0, #2
    8fd4:	e0855003 	add	r5, r5, r3
    8fd8:	e0852007 	add	r2, r5, r7
    8fdc:	e7953100 	ldr	r3, [r5, r0, lsl #2]
    8fe0:	e6bf3f33 	rev	r3, r3
    8fe4:	e58d301c 	str	r3, [sp, #28]
    8fe8:	e3530008 	cmp	r3, #8
    8fec:	e5923004 	ldr	r3, [r2, #4]
    8ff0:	e6bf3f33 	rev	r3, r3
    8ff4:	e58d301c 	str	r3, [sp, #28]
    8ff8:	0a000002 	beq	9008 <devicetree_get_memory+0xbc>
    8ffc:	e30d03ec 	movw	r0, #54252	; 0xd3ec
    9000:	e3400000 	movt	r0, #0
    9004:	eb000ea9 	bl	cab0 <printk>
    9008:	e59d3014 	ldr	r3, [sp, #20]
    900c:	e3530001 	cmp	r3, #1
    9010:	0a000068 	beq	91b8 <devicetree_get_memory+0x26c>
    9014:	e3530002 	cmp	r3, #2
    9018:	0a000051 	beq	9164 <devicetree_get_memory+0x218>
    901c:	e30d0428 	movw	r0, #54312	; 0xd428
    9020:	e3a07000 	mov	r7, #0
    9024:	e3400000 	movt	r0, #0
    9028:	e1a08007 	mov	r8, r7
    902c:	eb000e9f 	bl	cab0 <printk>
    9030:	e59d3018 	ldr	r3, [sp, #24]
    9034:	e3530001 	cmp	r3, #1
    9038:	0a000056 	beq	9198 <devicetree_get_memory+0x24c>
    903c:	e3530002 	cmp	r3, #2
    9040:	0a00002b 	beq	90f4 <devicetree_get_memory+0x1a8>
    9044:	e30d0448 	movw	r0, #54344	; 0xd448
    9048:	e3400000 	movt	r0, #0
    904c:	eb000e97 	bl	cab0 <printk>
    9050:	e30d13e0 	movw	r1, #54240	; 0xd3e0
    9054:	e30d0468 	movw	r0, #54376	; 0xd468
    9058:	e3401000 	movt	r1, #0
    905c:	e3400000 	movt	r0, #0
    9060:	ebfffecd 	bl	8b9c <devicetree_find_node_prop>
    9064:	e5963010 	ldr	r3, [r6, #16]
    9068:	e1a05000 	mov	r5, r0
    906c:	e5964000 	ldr	r4, [r6]
    9070:	e1a06100 	lsl	r6, r0, #2
    9074:	e0844003 	add	r4, r4, r3
    9078:	e7943100 	ldr	r3, [r4, r0, lsl #2]
    907c:	e6bf7f33 	rev	r7, r3
    9080:	e3530302 	cmp	r3, #134217728	; 0x8000000
    9084:	0a000055 	beq	91e0 <devicetree_get_memory+0x294>
    9088:	e357000c 	cmp	r7, #12
    908c:	0a000067 	beq	9230 <devicetree_get_memory+0x2e4>
    9090:	e3570018 	cmp	r7, #24
    9094:	0a000070 	beq	925c <devicetree_get_memory+0x310>
    9098:	e30d04bc 	movw	r0, #54460	; 0xd4bc
    909c:	e1a01007 	mov	r1, r7
    90a0:	e3400000 	movt	r0, #0
    90a4:	eb000e81 	bl	cab0 <printk>
    90a8:	e1b07127 	lsrs	r7, r7, #2
    90ac:	0a00000d 	beq	90e8 <devicetree_get_memory+0x19c>
    90b0:	e0877005 	add	r7, r7, r5
    90b4:	e2855105 	add	r5, r5, #1073741825	; 0x40000001
    90b8:	e2843004 	add	r3, r4, #4
    90bc:	e30d64e8 	movw	r6, #54504	; 0xd4e8
    90c0:	e0844105 	add	r4, r4, r5, lsl #2
    90c4:	e0837107 	add	r7, r3, r7, lsl #2
    90c8:	e3406000 	movt	r6, #0
    90cc:	e5b42004 	ldr	r2, [r4, #4]!
    90d0:	e3a03000 	mov	r3, #0
    90d4:	e1a00006 	mov	r0, r6
    90d8:	e6bf2f32 	rev	r2, r2
    90dc:	eb000e73 	bl	cab0 <printk>
    90e0:	e1540007 	cmp	r4, r7
    90e4:	1afffff8 	bne	90cc <devicetree_get_memory+0x180>
    90e8:	e3a07000 	mov	r7, #0
    90ec:	e1a08007 	mov	r8, r7
    90f0:	ea000046 	b	9210 <devicetree_get_memory+0x2c4>
    90f4:	e0851109 	add	r1, r5, r9, lsl #2
    90f8:	e3a02008 	mov	r2, #8
    90fc:	e28d0020 	add	r0, sp, #32
    9100:	eb000ce9 	bl	c4ac <memcpy>
    9104:	e1cd02d0 	ldrd	r0, [sp, #32]
    9108:	ebfffde4 	bl	88a0 <big_to_little64>
    910c:	e1a04000 	mov	r4, r0
    9110:	e1a05001 	mov	r5, r1
    9114:	e3a03000 	mov	r3, #0
    9118:	e30023ff 	movw	r2, #1023	; 0x3ff
    911c:	e1550003 	cmp	r5, r3
    9120:	01540002 	cmpeq	r4, r2
    9124:	9affffc9 	bls	9050 <devicetree_get_memory+0x104>
    9128:	e1a03a24 	lsr	r3, r4, #20
    912c:	e1833605 	orr	r3, r3, r5, lsl #12
    9130:	e1a02a25 	lsr	r2, r5, #20
    9134:	e58d3008 	str	r3, [sp, #8]
    9138:	e30d052c 	movw	r0, #54572	; 0xd52c
    913c:	e58d200c 	str	r2, [sp, #12]
    9140:	e1a03005 	mov	r3, r5
    9144:	e3400000 	movt	r0, #0
    9148:	e1a02004 	mov	r2, r4
    914c:	e88d0180 	stm	sp, {r7, r8}
    9150:	eb000e56 	bl	cab0 <printk>
    9154:	e1a00004 	mov	r0, r4
    9158:	e1a01005 	mov	r1, r5
    915c:	e28dd02c 	add	sp, sp, #44	; 0x2c
    9160:	e8bd83f0 	pop	{r4, r5, r6, r7, r8, r9, pc}
    9164:	e2871008 	add	r1, r7, #8
    9168:	e3a02008 	mov	r2, #8
    916c:	e0851001 	add	r1, r5, r1
    9170:	e28d0020 	add	r0, sp, #32
    9174:	e2849004 	add	r9, r4, #4
    9178:	eb000ccb 	bl	c4ac <memcpy>
    917c:	e1cd02d0 	ldrd	r0, [sp, #32]
    9180:	ebfffdc6 	bl	88a0 <big_to_little64>
    9184:	e59d3018 	ldr	r3, [sp, #24]
    9188:	e1a08001 	mov	r8, r1
    918c:	e1a07000 	mov	r7, r0
    9190:	e3530001 	cmp	r3, #1
    9194:	1affffa8 	bne	903c <devicetree_get_memory+0xf0>
    9198:	e0851109 	add	r1, r5, r9, lsl #2
    919c:	e3a02004 	mov	r2, #4
    91a0:	e28d001c 	add	r0, sp, #28
    91a4:	e3a05000 	mov	r5, #0
    91a8:	eb000cbf 	bl	c4ac <memcpy>
    91ac:	e59d401c 	ldr	r4, [sp, #28]
    91b0:	e6bf4f34 	rev	r4, r4
    91b4:	eaffffd6 	b	9114 <devicetree_get_memory+0x1c8>
    91b8:	e2871008 	add	r1, r7, #8
    91bc:	e3a02004 	mov	r2, #4
    91c0:	e0851001 	add	r1, r5, r1
    91c4:	e28d001c 	add	r0, sp, #28
    91c8:	e2849003 	add	r9, r4, #3
    91cc:	eb000cb6 	bl	c4ac <memcpy>
    91d0:	e59d701c 	ldr	r7, [sp, #28]
    91d4:	e3a08000 	mov	r8, #0
    91d8:	e6bf7f37 	rev	r7, r7
    91dc:	eaffff93 	b	9030 <devicetree_get_memory+0xe4>
    91e0:	e0844006 	add	r4, r4, r6
    91e4:	e3a08000 	mov	r8, #0
    91e8:	e3a05000 	mov	r5, #0
    91ec:	e5947008 	ldr	r7, [r4, #8]
    91f0:	e594300c 	ldr	r3, [r4, #12]
    91f4:	e6bf7f37 	rev	r7, r7
    91f8:	e6bf4f33 	rev	r4, r3
    91fc:	e3a03000 	mov	r3, #0
    9200:	e30023ff 	movw	r2, #1023	; 0x3ff
    9204:	e1550003 	cmp	r5, r3
    9208:	01540002 	cmpeq	r4, r2
    920c:	8affffc5 	bhi	9128 <devicetree_get_memory+0x1dc>
    9210:	e30d04f4 	movw	r0, #54516	; 0xd4f4
    9214:	e3a04201 	mov	r4, #268435456	; 0x10000000
    9218:	e3400000 	movt	r0, #0
    921c:	e3a05000 	mov	r5, #0
    9220:	eb000e22 	bl	cab0 <printk>
    9224:	e3a03c01 	mov	r3, #256	; 0x100
    9228:	e3a02000 	mov	r2, #0
    922c:	eaffffc0 	b	9134 <devicetree_get_memory+0x1e8>
    9230:	e0844006 	add	r4, r4, r6
    9234:	e1c400d8 	ldrd	r0, [r4, #8]
    9238:	ebfffd98 	bl	88a0 <big_to_little64>
    923c:	e1a07000 	mov	r7, r0
    9240:	e1a08001 	mov	r8, r1
    9244:	e5940010 	ldr	r0, [r4, #16]
    9248:	e3a01000 	mov	r1, #0
    924c:	ebfffd93 	bl	88a0 <big_to_little64>
    9250:	e1a04000 	mov	r4, r0
    9254:	e1a05001 	mov	r5, r1
    9258:	eaffffe7 	b	91fc <devicetree_get_memory+0x2b0>
    925c:	e0846006 	add	r6, r4, r6
    9260:	e3a05000 	mov	r5, #0
    9264:	e1c600d8 	ldrd	r0, [r6, #8]
    9268:	ebfffd8c 	bl	88a0 <big_to_little64>
    926c:	e5964010 	ldr	r4, [r6, #16]
    9270:	e1a07000 	mov	r7, r0
    9274:	e1a08001 	mov	r8, r1
    9278:	e1c601d4 	ldrd	r0, [r6, #20]
    927c:	e6bf4f34 	rev	r4, r4
    9280:	ebfffd86 	bl	88a0 <big_to_little64>
    9284:	e596201c 	ldr	r2, [r6, #28]
    9288:	e3a03000 	mov	r3, #0
    928c:	e1cd00f0 	strd	r0, [sp]
    9290:	e6bf2f32 	rev	r2, r2
    9294:	e30d0474 	movw	r0, #54388	; 0xd474
    9298:	e58d300c 	str	r3, [sp, #12]
    929c:	e1a01a22 	lsr	r1, r2, #20
    92a0:	e58d1008 	str	r1, [sp, #8]
    92a4:	e3400000 	movt	r0, #0
    92a8:	eb000e00 	bl	cab0 <printk>
    92ac:	eaffffd2 	b	91fc <devicetree_get_memory+0x2b0>

000092b0 <platform_irq_enable>:
    92b0:	e3053400 	movw	r3, #21504	; 0x5400
    92b4:	e3403002 	movt	r3, #2
    92b8:	e5933000 	ldr	r3, [r3]
    92bc:	e3530010 	cmp	r3, #16
    92c0:	0a000001 	beq	92cc <platform_irq_enable+0x1c>
    92c4:	e3a00000 	mov	r0, #0
    92c8:	e12fff1e 	bx	lr
    92cc:	e30d0564 	movw	r0, #54628	; 0xd564
    92d0:	e92d4010 	push	{r4, lr}
    92d4:	e3400000 	movt	r0, #0
    92d8:	eb000df4 	bl	cab0 <printk>
    92dc:	e3a00000 	mov	r0, #0
    92e0:	e34f0f84 	movt	r0, #65412	; 0xff84
    92e4:	eb000093 	bl	9538 <gic400_init>
    92e8:	e3a00000 	mov	r0, #0
    92ec:	e8bd8010 	pop	{r4, pc}

000092f0 <irq_enable>:
    92f0:	e3500040 	cmp	r0, #64	; 0x40
    92f4:	e92d4070 	push	{r4, r5, r6, lr}
    92f8:	e1a04000 	mov	r4, r0
    92fc:	ca00000f 	bgt	9340 <irq_enable+0x50>
    9300:	e3500000 	cmp	r0, #0
    9304:	e280301f 	add	r3, r0, #31
    9308:	a1a03000 	movge	r3, r0
    930c:	e30b5210 	movw	r5, #45584	; 0xb210
    9310:	e204401f 	and	r4, r4, #31
    9314:	e1a032c3 	asr	r3, r3, #5
    9318:	e0855103 	add	r5, r5, r3, lsl #2
    931c:	e1a00005 	mov	r0, r5
    9320:	eb0004ae 	bl	a5e0 <bcm2835_read>
    9324:	e3a01001 	mov	r1, #1
    9328:	e1a03000 	mov	r3, r0
    932c:	e1a00005 	mov	r0, r5
    9330:	e1831411 	orr	r1, r3, r1, lsl r4
    9334:	eb0004a3 	bl	a5c8 <bcm2835_write>
    9338:	e3a00000 	mov	r0, #0
    933c:	e8bd8070 	pop	{r4, r5, r6, pc}
    9340:	e30d0580 	movw	r0, #54656	; 0xd580
    9344:	e1a01004 	mov	r1, r4
    9348:	e3400000 	movt	r0, #0
    934c:	eb000dd7 	bl	cab0 <printk>
    9350:	e3e00000 	mvn	r0, #0
    9354:	e8bd8070 	pop	{r4, r5, r6, pc}

00009358 <irq_disable>:
    9358:	e3500040 	cmp	r0, #64	; 0x40
    935c:	e92d4070 	push	{r4, r5, r6, lr}
    9360:	e1a04000 	mov	r4, r0
    9364:	ca00000f 	bgt	93a8 <irq_disable+0x50>
    9368:	e3500000 	cmp	r0, #0
    936c:	e280301f 	add	r3, r0, #31
    9370:	a1a03000 	movge	r3, r0
    9374:	e30b521c 	movw	r5, #45596	; 0xb21c
    9378:	e204401f 	and	r4, r4, #31
    937c:	e1a032c3 	asr	r3, r3, #5
    9380:	e0855103 	add	r5, r5, r3, lsl #2
    9384:	e1a00005 	mov	r0, r5
    9388:	eb000494 	bl	a5e0 <bcm2835_read>
    938c:	e3a01001 	mov	r1, #1
    9390:	e1a03000 	mov	r3, r0
    9394:	e1a00005 	mov	r0, r5
    9398:	e1831411 	orr	r1, r3, r1, lsl r4
    939c:	eb000489 	bl	a5c8 <bcm2835_write>
    93a0:	e3a00000 	mov	r0, #0
    93a4:	e8bd8070 	pop	{r4, r5, r6, pc}
    93a8:	e30d0580 	movw	r0, #54656	; 0xd580
    93ac:	e1a01004 	mov	r1, r4
    93b0:	e3400000 	movt	r0, #0
    93b4:	eb000dbd 	bl	cab0 <printk>
    93b8:	e3e00000 	mvn	r0, #0
    93bc:	e8bd8070 	pop	{r4, r5, r6, pc}

000093c0 <interrupt_handler_c>:
    93c0:	e92d41f0 	push	{r4, r5, r6, r7, r8, lr}
    93c4:	e3054400 	movw	r4, #21504	; 0x5400
    93c8:	e3404002 	movt	r4, #2
    93cc:	e3a00cb2 	mov	r0, #45568	; 0xb200
    93d0:	e5943000 	ldr	r3, [r4]
    93d4:	e3530010 	cmp	r3, #16
    93d8:	0a00001b 	beq	944c <interrupt_handler_c+0x8c>
    93dc:	eb00047f 	bl	a5e0 <bcm2835_read>
    93e0:	e3100702 	tst	r0, #524288	; 0x80000
    93e4:	e1a05000 	mov	r5, r0
    93e8:	1a000006 	bne	9408 <interrupt_handler_c+0x48>
    93ec:	e3100001 	tst	r0, #1
    93f0:	1a000021 	bne	947c <interrupt_handler_c+0xbc>
    93f4:	e30d05b8 	movw	r0, #54712	; 0xd5b8
    93f8:	e1a01005 	mov	r1, r5
    93fc:	e3400000 	movt	r0, #0
    9400:	e8bd41f0 	pop	{r4, r5, r6, r7, r8, lr}
    9404:	ea000da9 	b	cab0 <printk>
    9408:	eb00057b 	bl	a9fc <serial_interrupt_handler>
    940c:	e3150001 	tst	r5, #1
    9410:	1a000019 	bne	947c <interrupt_handler_c+0xbc>
    9414:	e5943000 	ldr	r3, [r4]
    9418:	e3530010 	cmp	r3, #16
    941c:	1a000003 	bne	9430 <interrupt_handler_c+0x70>
    9420:	e3a03d4a 	mov	r3, #4736	; 0x1280
    9424:	e3e02000 	mvn	r2, #0
    9428:	e34f3f84 	movt	r3, #65412	; 0xff84
    942c:	e5832000 	str	r2, [r3]
    9430:	e3053414 	movw	r3, #21524	; 0x5414
    9434:	e3403002 	movt	r3, #2
    9438:	e5933000 	ldr	r3, [r3]
    943c:	e3530000 	cmp	r3, #0
    9440:	08bd81f0 	popeq	{r4, r5, r6, r7, r8, pc}
    9444:	e8bd41f0 	pop	{r4, r5, r6, r7, r8, lr}
    9448:	ea000a95 	b	bea4 <schedule>
    944c:	eb000463 	bl	a5e0 <bcm2835_read>
    9450:	e1a07000 	mov	r7, r0
    9454:	e30b0204 	movw	r0, #45572	; 0xb204
    9458:	eb000460 	bl	a5e0 <bcm2835_read>
    945c:	e1a05000 	mov	r5, r0
    9460:	e30b0208 	movw	r0, #45576	; 0xb208
    9464:	eb00045d 	bl	a5e0 <bcm2835_read>
    9468:	e3150402 	tst	r5, #33554432	; 0x2000000
    946c:	e1a06000 	mov	r6, r0
    9470:	1a00000a 	bne	94a0 <interrupt_handler_c+0xe0>
    9474:	e3100001 	tst	r0, #1
    9478:	0a000001 	beq	9484 <interrupt_handler_c+0xc4>
    947c:	eb00057b 	bl	aa70 <timer_interrupt_handler>
    9480:	eaffffe3 	b	9414 <interrupt_handler_c+0x54>
    9484:	e30d0590 	movw	r0, #54672	; 0xd590
    9488:	e1a03006 	mov	r3, r6
    948c:	e3400000 	movt	r0, #0
    9490:	e1a02005 	mov	r2, r5
    9494:	e1a01007 	mov	r1, r7
    9498:	e8bd41f0 	pop	{r4, r5, r6, r7, r8, lr}
    949c:	ea000d83 	b	cab0 <printk>
    94a0:	eb000555 	bl	a9fc <serial_interrupt_handler>
    94a4:	e3160001 	tst	r6, #1
    94a8:	0affffd9 	beq	9414 <interrupt_handler_c+0x54>
    94ac:	eafffff2 	b	947c <interrupt_handler_c+0xbc>

000094b0 <fiq_handler>:
    94b0:	e24ee004 	sub	lr, lr, #4
    94b4:	e92d401f 	push	{r0, r1, r2, r3, r4, lr}
    94b8:	e30d05d8 	movw	r0, #54744	; 0xd5d8
    94bc:	e3400000 	movt	r0, #0
    94c0:	eb000d7a 	bl	cab0 <printk>
    94c4:	e8fd801f 	ldm	sp!, {r0, r1, r2, r3, r4, pc}^

000094c8 <abort_handler>:
    94c8:	e24ee004 	sub	lr, lr, #4
    94cc:	e92d500f 	push	{r0, r1, r2, r3, ip, lr}
    94d0:	e30d05e8 	movw	r0, #54760	; 0xd5e8
    94d4:	e3400000 	movt	r0, #0
    94d8:	eb000d74 	bl	cab0 <printk>
    94dc:	e8fd900f 	ldm	sp!, {r0, r1, r2, r3, ip, pc}^

000094e0 <undef_handler>:
    94e0:	e92d500f 	push	{r0, r1, r2, r3, ip, lr}
    94e4:	e30d05fc 	movw	r0, #54780	; 0xd5fc
    94e8:	e3400000 	movt	r0, #0
    94ec:	e1a0100e 	mov	r1, lr
    94f0:	eb000d6e 	bl	cab0 <printk>
    94f4:	e8fd900f 	ldm	sp!, {r0, r1, r2, r3, ip, pc}^

000094f8 <interrupt_handler>:
    94f8:	e24ee004 	sub	lr, lr, #4
    94fc:	e59fd030 	ldr	sp, [pc, #48]	; 9534 <exit_interrupt+0x18>
    9500:	e59dd000 	ldr	sp, [sp]
    9504:	e8cd7fff 	stmia	sp, {r0, r1, r2, r3, r4, r5, r6, r7, r8, r9, sl, fp, ip, sp, lr}^
    9508:	e58de03c 	str	lr, [sp, #60]	; 0x3c
    950c:	e14f0000 	mrs	r0, SPSR
    9510:	e58d0040 	str	r0, [sp, #64]	; 0x40
    9514:	e28dda02 	add	sp, sp, #8192	; 0x2000
    9518:	ebffffa8 	bl	93c0 <interrupt_handler_c>

0000951c <exit_interrupt>:
    951c:	e24dda02 	sub	sp, sp, #8192	; 0x2000
    9520:	e59d0040 	ldr	r0, [sp, #64]	; 0x40
    9524:	e16ff000 	msr	SPSR_fsxc, r0
    9528:	e59de03c 	ldr	lr, [sp, #60]	; 0x3c
    952c:	e8dd7fff 	ldm	sp, {r0, r1, r2, r3, r4, r5, r6, r7, r8, r9, sl, fp, ip, sp, lr}^
    9530:	e1b0f00e 	movs	pc, lr
    9534:	00030580 	andeq	r0, r3, r0, lsl #11

00009538 <gic400_init>:
    9538:	e3a03a01 	mov	r3, #4096	; 0x1000
    953c:	e3a02000 	mov	r2, #0
    9540:	e34f3f84 	movt	r3, #65412	; 0xff84
    9544:	e52de004 	push	{lr}		; (str lr, [sp, #-4]!)
    9548:	e5832000 	str	r2, [r3]
    954c:	e3011004 	movw	r1, #4100	; 0x1004
    9550:	e34f1f84 	movt	r1, #65412	; 0xff84
    9554:	e5911000 	ldr	r1, [r1]
    9558:	e308340c 	movw	r3, #33804	; 0x840c
    955c:	e201100f 	and	r1, r1, #15
    9560:	e3403002 	movt	r3, #2
    9564:	e1510002 	cmp	r1, r2
    9568:	e1a0e281 	lsl	lr, r1, #5
    956c:	e583e000 	str	lr, [r3]
    9570:	0a00002d 	beq	962c <gic400_init+0xf4>
    9574:	e3a00e46 	mov	r0, #1120	; 0x460
    9578:	e3a03d46 	mov	r3, #4480	; 0x1180
    957c:	e3430fe1 	movt	r0, #16353	; 0x3fe1
    9580:	e3e02000 	mvn	r2, #0
    9584:	e0810000 	add	r0, r1, r0
    9588:	e34f3f84 	movt	r3, #65412	; 0xff84
    958c:	e1a00100 	lsl	r0, r0, #2
    9590:	e5832000 	str	r2, [r3]
    9594:	e2831c01 	add	r1, r3, #256	; 0x100
    9598:	e5812000 	str	r2, [r1]
    959c:	e2831c02 	add	r1, r3, #512	; 0x200
    95a0:	e5812000 	str	r2, [r1]
    95a4:	e2833004 	add	r3, r3, #4
    95a8:	e1530000 	cmp	r3, r0
    95ac:	1afffff7 	bne	9590 <gic400_init+0x58>
    95b0:	e1b0212e 	lsrs	r2, lr, #2
    95b4:	0a00000f 	beq	95f8 <gic400_init+0xc0>
    95b8:	e3a01c05 	mov	r1, #1280	; 0x500
    95bc:	e3a03b05 	mov	r3, #5120	; 0x1400
    95c0:	e3431fe1 	movt	r1, #16353	; 0x3fe1
    95c4:	e30ac0a0 	movw	ip, #41120	; 0xa0a0
    95c8:	e0821001 	add	r1, r2, r1
    95cc:	e3000101 	movw	r0, #257	; 0x101
    95d0:	e34f3f84 	movt	r3, #65412	; 0xff84
    95d4:	e1a01101 	lsl	r1, r1, #2
    95d8:	e34ac0a0 	movt	ip, #41120	; 0xa0a0
    95dc:	e3400101 	movt	r0, #257	; 0x101
    95e0:	e583c000 	str	ip, [r3]
    95e4:	e2832b01 	add	r2, r3, #1024	; 0x400
    95e8:	e5820000 	str	r0, [r2]
    95ec:	e2833004 	add	r3, r3, #4
    95f0:	e1510003 	cmp	r1, r3
    95f4:	1afffff9 	bne	95e0 <gic400_init+0xa8>
    95f8:	e1b0e22e 	lsrs	lr, lr, #4
    95fc:	0a00000a 	beq	962c <gic400_init+0xf4>
    9600:	e3a02c07 	mov	r2, #1792	; 0x700
    9604:	e3a03b07 	mov	r3, #7168	; 0x1c00
    9608:	e3432fe1 	movt	r2, #16353	; 0x3fe1
    960c:	e3a01000 	mov	r1, #0
    9610:	e08e2002 	add	r2, lr, r2
    9614:	e34f3f84 	movt	r3, #65412	; 0xff84
    9618:	e1a02102 	lsl	r2, r2, #2
    961c:	e5831000 	str	r1, [r3]
    9620:	e2833004 	add	r3, r3, #4
    9624:	e1520003 	cmp	r2, r3
    9628:	1afffffb 	bne	961c <gic400_init+0xe4>
    962c:	e3a03c11 	mov	r3, #4352	; 0x1100
    9630:	e3a02102 	mov	r2, #-2147483648	; 0x80000000
    9634:	e34f3f84 	movt	r3, #65412	; 0xff84
    9638:	e5832000 	str	r2, [r3]
    963c:	e3a03a01 	mov	r3, #4096	; 0x1000
    9640:	e3a02001 	mov	r2, #1
    9644:	e34f3f84 	movt	r3, #65412	; 0xff84
    9648:	e5832000 	str	r2, [r3]
    964c:	e3023004 	movw	r3, #8196	; 0x2004
    9650:	e3a010f0 	mov	r1, #240	; 0xf0
    9654:	e34f3f84 	movt	r3, #65412	; 0xff84
    9658:	e5831000 	str	r1, [r3]
    965c:	e3a03a02 	mov	r3, #8192	; 0x2000
    9660:	e34f3f84 	movt	r3, #65412	; 0xff84
    9664:	e5832000 	str	r2, [r3]
    9668:	e3a00000 	mov	r0, #0
    966c:	e49df004 	pop	{pc}		; (ldr pc, [sp], #4)

00009670 <swi_handler>:
    9670:	e59fd034 	ldr	sp, [pc, #52]	; 96ac <swi_handler+0x3c>
    9674:	e59dd000 	ldr	sp, [sp]
    9678:	e8cd7fff 	stmia	sp, {r0, r1, r2, r3, r4, r5, r6, r7, r8, r9, sl, fp, ip, sp, lr}^
    967c:	e58de03c 	str	lr, [sp, #60]	; 0x3c
    9680:	e14fc000 	mrs	ip, SPSR
    9684:	e58dc040 	str	ip, [sp, #64]	; 0x40
    9688:	e28dda02 	add	sp, sp, #8192	; 0x2000
    968c:	eb000007 	bl	96b0 <swi_handler_c>
    9690:	e24dda02 	sub	sp, sp, #8192	; 0x2000
    9694:	e58d0000 	str	r0, [sp]
    9698:	e59d0040 	ldr	r0, [sp, #64]	; 0x40
    969c:	e16ff000 	msr	SPSR_fsxc, r0
    96a0:	e59de03c 	ldr	lr, [sp, #60]	; 0x3c
    96a4:	e8dd7fff 	ldm	sp, {r0, r1, r2, r3, r4, r5, r6, r7, r8, r9, sl, fp, ip, sp, lr}^
    96a8:	e1b0f00e 	movs	pc, lr
    96ac:	00030580 	andeq	r0, r3, r0, lsl #11

000096b0 <swi_handler_c>:
    96b0:	e357007a 	cmp	r7, #122	; 0x7a
    96b4:	e92d40b0 	push	{r4, r5, r7, lr}
    96b8:	e1a05000 	mov	r5, r0
    96bc:	ca000080 	bgt	98c4 <swi_handler_c+0x214>
    96c0:	e3570000 	cmp	r7, #0
    96c4:	da0000e4 	ble	9a5c <swi_handler_c+0x3ac>
    96c8:	e1a03002 	mov	r3, r2
    96cc:	e2472001 	sub	r2, r7, #1
    96d0:	e3520079 	cmp	r2, #121	; 0x79
    96d4:	979ff102 	ldrls	pc, [pc, r2, lsl #2]
    96d8:	ea0000df 	b	9a5c <swi_handler_c+0x3ac>
    96dc:	00009a50 	andeq	r9, r0, r0, asr sl
    96e0:	00009a5c 	andeq	r9, r0, ip, asr sl
    96e4:	00009a40 	andeq	r9, r0, r0, asr #20
    96e8:	00009a30 	andeq	r9, r0, r0, lsr sl
    96ec:	00009a20 	andeq	r9, r0, r0, lsr #20
    96f0:	00009a14 	andeq	r9, r0, r4, lsl sl
    96f4:	000099f4 	strdeq	r9, [r0], -r4
    96f8:	00009a5c 	andeq	r9, r0, ip, asr sl
    96fc:	00009a5c 	andeq	r9, r0, ip, asr sl
    9700:	00009a5c 	andeq	r9, r0, ip, asr sl
    9704:	000099c8 	andeq	r9, r0, r8, asr #19
    9708:	000099bc 			; <UNDEFINED> instruction: 0x000099bc
    970c:	000099b0 			; <UNDEFINED> instruction: 0x000099b0
    9710:	00009a5c 	andeq	r9, r0, ip, asr sl
    9714:	00009a5c 	andeq	r9, r0, ip, asr sl
    9718:	00009a5c 	andeq	r9, r0, ip, asr sl
    971c:	00009a5c 	andeq	r9, r0, ip, asr sl
    9720:	00009a5c 	andeq	r9, r0, ip, asr sl
    9724:	00009a5c 	andeq	r9, r0, ip, asr sl
    9728:	0000999c 	muleq	r0, ip, r9
    972c:	00009a5c 	andeq	r9, r0, ip, asr sl
    9730:	00009a5c 	andeq	r9, r0, ip, asr sl
    9734:	00009a5c 	andeq	r9, r0, ip, asr sl
    9738:	00009a5c 	andeq	r9, r0, ip, asr sl
    973c:	00009a5c 	andeq	r9, r0, ip, asr sl
    9740:	00009a5c 	andeq	r9, r0, ip, asr sl
    9744:	00009a5c 	andeq	r9, r0, ip, asr sl
    9748:	00009a5c 	andeq	r9, r0, ip, asr sl
    974c:	00009a5c 	andeq	r9, r0, ip, asr sl
    9750:	00009a5c 	andeq	r9, r0, ip, asr sl
    9754:	00009a5c 	andeq	r9, r0, ip, asr sl
    9758:	00009a5c 	andeq	r9, r0, ip, asr sl
    975c:	00009a5c 	andeq	r9, r0, ip, asr sl
    9760:	00009a5c 	andeq	r9, r0, ip, asr sl
    9764:	00009a5c 	andeq	r9, r0, ip, asr sl
    9768:	00009a5c 	andeq	r9, r0, ip, asr sl
    976c:	00009a5c 	andeq	r9, r0, ip, asr sl
    9770:	00009a5c 	andeq	r9, r0, ip, asr sl
    9774:	00009a5c 	andeq	r9, r0, ip, asr sl
    9778:	00009a5c 	andeq	r9, r0, ip, asr sl
    977c:	00009a5c 	andeq	r9, r0, ip, asr sl
    9780:	00009a5c 	andeq	r9, r0, ip, asr sl
    9784:	00009990 	muleq	r0, r0, r9
    9788:	00009a5c 	andeq	r9, r0, ip, asr sl
    978c:	00009a5c 	andeq	r9, r0, ip, asr sl
    9790:	00009a5c 	andeq	r9, r0, ip, asr sl
    9794:	00009a5c 	andeq	r9, r0, ip, asr sl
    9798:	00009a5c 	andeq	r9, r0, ip, asr sl
    979c:	00009a5c 	andeq	r9, r0, ip, asr sl
    97a0:	00009a5c 	andeq	r9, r0, ip, asr sl
    97a4:	00009a5c 	andeq	r9, r0, ip, asr sl
    97a8:	00009a5c 	andeq	r9, r0, ip, asr sl
    97ac:	00009a5c 	andeq	r9, r0, ip, asr sl
    97b0:	00009978 	andeq	r9, r0, r8, ror r9
    97b4:	00009a5c 	andeq	r9, r0, ip, asr sl
    97b8:	00009a5c 	andeq	r9, r0, ip, asr sl
    97bc:	00009a5c 	andeq	r9, r0, ip, asr sl
    97c0:	00009a5c 	andeq	r9, r0, ip, asr sl
    97c4:	00009a5c 	andeq	r9, r0, ip, asr sl
    97c8:	00009a5c 	andeq	r9, r0, ip, asr sl
    97cc:	00009a5c 	andeq	r9, r0, ip, asr sl
    97d0:	00009a5c 	andeq	r9, r0, ip, asr sl
    97d4:	00009a5c 	andeq	r9, r0, ip, asr sl
    97d8:	00009a5c 	andeq	r9, r0, ip, asr sl
    97dc:	00009a5c 	andeq	r9, r0, ip, asr sl
    97e0:	00009a5c 	andeq	r9, r0, ip, asr sl
    97e4:	00009a5c 	andeq	r9, r0, ip, asr sl
    97e8:	00009a5c 	andeq	r9, r0, ip, asr sl
    97ec:	00009a5c 	andeq	r9, r0, ip, asr sl
    97f0:	00009a5c 	andeq	r9, r0, ip, asr sl
    97f4:	00009a5c 	andeq	r9, r0, ip, asr sl
    97f8:	00009a5c 	andeq	r9, r0, ip, asr sl
    97fc:	00009a5c 	andeq	r9, r0, ip, asr sl
    9800:	00009a5c 	andeq	r9, r0, ip, asr sl
    9804:	00009a5c 	andeq	r9, r0, ip, asr sl
    9808:	00009a5c 	andeq	r9, r0, ip, asr sl
    980c:	00009a5c 	andeq	r9, r0, ip, asr sl
    9810:	00009a5c 	andeq	r9, r0, ip, asr sl
    9814:	00009a5c 	andeq	r9, r0, ip, asr sl
    9818:	00009a5c 	andeq	r9, r0, ip, asr sl
    981c:	00009a5c 	andeq	r9, r0, ip, asr sl
    9820:	00009a5c 	andeq	r9, r0, ip, asr sl
    9824:	00009a5c 	andeq	r9, r0, ip, asr sl
    9828:	00009a5c 	andeq	r9, r0, ip, asr sl
    982c:	00009a5c 	andeq	r9, r0, ip, asr sl
    9830:	00009a5c 	andeq	r9, r0, ip, asr sl
    9834:	00009a5c 	andeq	r9, r0, ip, asr sl
    9838:	00009948 	andeq	r9, r0, r8, asr #18
    983c:	00009a5c 	andeq	r9, r0, ip, asr sl
    9840:	00009a5c 	andeq	r9, r0, ip, asr sl
    9844:	00009a5c 	andeq	r9, r0, ip, asr sl
    9848:	00009a5c 	andeq	r9, r0, ip, asr sl
    984c:	00009a5c 	andeq	r9, r0, ip, asr sl
    9850:	00009a5c 	andeq	r9, r0, ip, asr sl
    9854:	00009a5c 	andeq	r9, r0, ip, asr sl
    9858:	00009a5c 	andeq	r9, r0, ip, asr sl
    985c:	00009a5c 	andeq	r9, r0, ip, asr sl
    9860:	00009a5c 	andeq	r9, r0, ip, asr sl
    9864:	00009a5c 	andeq	r9, r0, ip, asr sl
    9868:	00009a5c 	andeq	r9, r0, ip, asr sl
    986c:	00009a5c 	andeq	r9, r0, ip, asr sl
    9870:	00009a5c 	andeq	r9, r0, ip, asr sl
    9874:	00009a5c 	andeq	r9, r0, ip, asr sl
    9878:	00009a5c 	andeq	r9, r0, ip, asr sl
    987c:	00009a5c 	andeq	r9, r0, ip, asr sl
    9880:	0000993c 	andeq	r9, r0, ip, lsr r9
    9884:	00009a5c 	andeq	r9, r0, ip, asr sl
    9888:	00009a5c 	andeq	r9, r0, ip, asr sl
    988c:	00009a5c 	andeq	r9, r0, ip, asr sl
    9890:	00009a5c 	andeq	r9, r0, ip, asr sl
    9894:	00009a5c 	andeq	r9, r0, ip, asr sl
    9898:	00009a5c 	andeq	r9, r0, ip, asr sl
    989c:	00009a5c 	andeq	r9, r0, ip, asr sl
    98a0:	00009a5c 	andeq	r9, r0, ip, asr sl
    98a4:	00009a5c 	andeq	r9, r0, ip, asr sl
    98a8:	00009930 	andeq	r9, r0, r0, lsr r9
    98ac:	00009a5c 	andeq	r9, r0, ip, asr sl
    98b0:	00009a5c 	andeq	r9, r0, ip, asr sl
    98b4:	00009a5c 	andeq	r9, r0, ip, asr sl
    98b8:	00009a5c 	andeq	r9, r0, ip, asr sl
    98bc:	00009a5c 	andeq	r9, r0, ip, asr sl
    98c0:	00009924 	andeq	r9, r0, r4, lsr #18
    98c4:	e35700be 	cmp	r7, #190	; 0xbe
    98c8:	0a000068 	beq	9a70 <swi_handler_c+0x3c0>
    98cc:	da000008 	ble	98f4 <swi_handler_c+0x244>
    98d0:	e3570a02 	cmp	r7, #8192	; 0x2000
    98d4:	0a00006b 	beq	9a88 <swi_handler_c+0x3d8>
    98d8:	e3023009 	movw	r3, #8201	; 0x2009
    98dc:	e1570003 	cmp	r7, r3
    98e0:	1a00005d 	bne	9a5c <swi_handler_c+0x3ac>
    98e4:	eb000741 	bl	b5f0 <memory_allocate>
    98e8:	e1a04000 	mov	r4, r0
    98ec:	e1a00004 	mov	r0, r4
    98f0:	e8bd80b0 	pop	{r4, r5, r7, pc}
    98f4:	e35700a2 	cmp	r7, #162	; 0xa2
    98f8:	0a00005f 	beq	9a7c <swi_handler_c+0x3cc>
    98fc:	e35700b7 	cmp	r7, #183	; 0xb7
    9900:	1a000002 	bne	9910 <swi_handler_c+0x260>
    9904:	eb0001c6 	bl	a024 <getcwd>
    9908:	e1a04000 	mov	r4, r0
    990c:	eafffff6 	b	98ec <swi_handler_c+0x23c>
    9910:	e357008d 	cmp	r7, #141	; 0x8d
    9914:	1a000050 	bne	9a5c <swi_handler_c+0x3ac>
    9918:	eb00018d 	bl	9f54 <getdents>
    991c:	e1a04000 	mov	r4, r0
    9920:	eafffff1 	b	98ec <swi_handler_c+0x23c>
    9924:	eb0000b7 	bl	9c08 <uname>
    9928:	e1a04000 	mov	r4, r0
    992c:	eaffffee 	b	98ec <swi_handler_c+0x23c>
    9930:	eb000089 	bl	9b5c <sysinfo>
    9934:	e1a04000 	mov	r4, r0
    9938:	eaffffeb 	b	98ec <swi_handler_c+0x23c>
    993c:	eb00015a 	bl	9eac <stat>
    9940:	e1a04000 	mov	r4, r0
    9944:	eaffffe8 	b	98ec <swi_handler_c+0x23c>
    9948:	e3a01001 	mov	r1, #1
    994c:	e3a00024 	mov	r0, #36	; 0x24
    9950:	e3451a00 	movt	r1, #23040	; 0x5a00
    9954:	e3400010 	movt	r0, #16
    9958:	eb00031a 	bl	a5c8 <bcm2835_write>
    995c:	e3a01020 	mov	r1, #32
    9960:	e3a0001c 	mov	r0, #28
    9964:	e3451a00 	movt	r1, #23040	; 0x5a00
    9968:	e3400010 	movt	r0, #16
    996c:	eb000315 	bl	a5c8 <bcm2835_write>
    9970:	e3e04000 	mvn	r4, #0
    9974:	eaffffdc 	b	98ec <swi_handler_c+0x23c>
    9978:	e30d0610 	movw	r0, #54800	; 0xd610
    997c:	e1a02001 	mov	r2, r1
    9980:	e3400000 	movt	r0, #0
    9984:	e1a01005 	mov	r1, r5
    9988:	eb000c48 	bl	cab0 <printk>
    998c:	eafffff7 	b	9970 <swi_handler_c+0x2c0>
    9990:	eb000091 	bl	9bdc <times>
    9994:	e1a04000 	mov	r4, r0
    9998:	eaffffd3 	b	98ec <swi_handler_c+0x23c>
    999c:	e3003580 	movw	r3, #1408	; 0x580
    99a0:	e3403003 	movt	r3, #3
    99a4:	e5933000 	ldr	r3, [r3]
    99a8:	e59340a8 	ldr	r4, [r3, #168]	; 0xa8
    99ac:	eaffffce 	b	98ec <swi_handler_c+0x23c>
    99b0:	eb000ab4 	bl	c488 <time_since_boot>
    99b4:	e1a04000 	mov	r4, r0
    99b8:	eaffffcb 	b	98ec <swi_handler_c+0x23c>
    99bc:	eb000180 	bl	9fc4 <chdir>
    99c0:	e1a04000 	mov	r4, r0
    99c4:	eaffffc8 	b	98ec <swi_handler_c+0x23c>
    99c8:	e1a02003 	mov	r2, r3
    99cc:	eb000891 	bl	bc18 <execve>
    99d0:	e3003580 	movw	r3, #1408	; 0x580
    99d4:	e3a02001 	mov	r2, #1
    99d8:	e3403003 	movt	r3, #3
    99dc:	e1a04000 	mov	r4, r0
    99e0:	e5933000 	ldr	r3, [r3]
    99e4:	e59330b0 	ldr	r3, [r3, #176]	; 0xb0
    99e8:	e5832098 	str	r2, [r3, #152]	; 0x98
    99ec:	eb00092c 	bl	bea4 <schedule>
    99f0:	eaffffbd 	b	98ec <swi_handler_c+0x23c>
    99f4:	e3000580 	movw	r0, #1408	; 0x580
    99f8:	e1a02003 	mov	r2, r3
    99fc:	e3400003 	movt	r0, #3
    9a00:	e5903000 	ldr	r3, [r0]
    9a04:	e1a00005 	mov	r0, r5
    9a08:	eb0009b8 	bl	c0f0 <waitpid>
    9a0c:	e1a04000 	mov	r4, r0
    9a10:	eaffffb5 	b	98ec <swi_handler_c+0x23c>
    9a14:	eb0000e8 	bl	9dbc <close>
    9a18:	e1a04000 	mov	r4, r0
    9a1c:	eaffffb2 	b	98ec <swi_handler_c+0x23c>
    9a20:	e1a02003 	mov	r2, r3
    9a24:	eb0000e6 	bl	9dc4 <open>
    9a28:	e1a04000 	mov	r4, r0
    9a2c:	eaffffae 	b	98ec <swi_handler_c+0x23c>
    9a30:	e1a02003 	mov	r2, r3
    9a34:	eb00010e 	bl	9e74 <write>
    9a38:	e1a04000 	mov	r4, r0
    9a3c:	eaffffaa 	b	98ec <swi_handler_c+0x23c>
    9a40:	e1a02003 	mov	r2, r3
    9a44:	eb0000e6 	bl	9de4 <read>
    9a48:	e1a04000 	mov	r4, r0
    9a4c:	eaffffa6 	b	98ec <swi_handler_c+0x23c>
    9a50:	eb00001f 	bl	9ad4 <exit>
    9a54:	e3a04000 	mov	r4, #0
    9a58:	eaffffa3 	b	98ec <swi_handler_c+0x23c>
    9a5c:	e30d065c 	movw	r0, #54876	; 0xd65c
    9a60:	e1a01007 	mov	r1, r7
    9a64:	e3400000 	movt	r0, #0
    9a68:	eb000c10 	bl	cab0 <printk>
    9a6c:	eafffff8 	b	9a54 <swi_handler_c+0x3a4>
    9a70:	eb00096f 	bl	c034 <vfork>
    9a74:	e1a04000 	mov	r4, r0
    9a78:	eaffff9b 	b	98ec <swi_handler_c+0x23c>
    9a7c:	eb00001e 	bl	9afc <nanosleep>
    9a80:	e1a04000 	mov	r4, r0
    9a84:	eaffff98 	b	98ec <swi_handler_c+0x23c>
    9a88:	e3500000 	cmp	r0, #0
    9a8c:	1a000007 	bne	9ab0 <swi_handler_c+0x400>
    9a90:	e30d0638 	movw	r0, #54840	; 0xd638
    9a94:	e1a04005 	mov	r4, r5
    9a98:	e3400000 	movt	r0, #0
    9a9c:	eb000c03 	bl	cab0 <printk>
    9aa0:	e305340c 	movw	r3, #21516	; 0x540c
    9aa4:	e3403002 	movt	r3, #2
    9aa8:	e5835000 	str	r5, [r3]
    9aac:	eaffff8e 	b	98ec <swi_handler_c+0x23c>
    9ab0:	e30d064c 	movw	r0, #54860	; 0xd64c
    9ab4:	e3a04000 	mov	r4, #0
    9ab8:	e3400000 	movt	r0, #0
    9abc:	eb000bfb 	bl	cab0 <printk>
    9ac0:	e305340c 	movw	r3, #21516	; 0x540c
    9ac4:	e3a02001 	mov	r2, #1
    9ac8:	e3403002 	movt	r3, #2
    9acc:	e5832000 	str	r2, [r3]
    9ad0:	eaffff85 	b	98ec <swi_handler_c+0x23c>

00009ad4 <exit>:
    9ad4:	e3003580 	movw	r3, #1408	; 0x580
    9ad8:	e3a02002 	mov	r2, #2
    9adc:	e3403003 	movt	r3, #3
    9ae0:	e92d4010 	push	{r4, lr}
    9ae4:	e5933000 	ldr	r3, [r3]
    9ae8:	e58300ac 	str	r0, [r3, #172]	; 0xac
    9aec:	e5832098 	str	r2, [r3, #152]	; 0x98
    9af0:	eb000978 	bl	c0d8 <waitpid_done>
    9af4:	e8bd4010 	pop	{r4, lr}
    9af8:	ea0008e9 	b	bea4 <schedule>

00009afc <nanosleep>:
    9afc:	e5903004 	ldr	r3, [r0, #4]
    9b00:	e30d1e83 	movw	r1, #56963	; 0xde83
    9b04:	e344131b 	movt	r1, #17179	; 0x431b
    9b08:	e3042dd3 	movw	r2, #19923	; 0x4dd3
    9b0c:	e92d4010 	push	{r4, lr}
    9b10:	e5904000 	ldr	r4, [r0]
    9b14:	e0803391 	umull	r3, r0, r1, r3
    9b18:	e3412062 	movt	r2, #4194	; 0x1062
    9b1c:	e1a00920 	lsr	r0, r0, #18
    9b20:	e1a04304 	lsl	r4, r4, #6
    9b24:	e1a00300 	lsl	r0, r0, #6
    9b28:	e0803092 	umull	r3, r0, r2, r0
    9b2c:	e0844320 	add	r4, r4, r0, lsr #6
    9b30:	eb000a59 	bl	c49c <ticks_since_boot>
    9b34:	e0844000 	add	r4, r4, r0
    9b38:	ea000000 	b	9b40 <nanosleep+0x44>
    9b3c:	eb0003f2 	bl	ab0c <timer_sleep_until>
    9b40:	eb000a55 	bl	c49c <ticks_since_boot>
    9b44:	e1a03000 	mov	r3, r0
    9b48:	e1a00004 	mov	r0, r4
    9b4c:	e1530004 	cmp	r3, r4
    9b50:	9afffff9 	bls	9b3c <nanosleep+0x40>
    9b54:	e3a00000 	mov	r0, #0
    9b58:	e8bd8010 	pop	{r4, pc}

00009b5c <sysinfo>:
    9b5c:	e92d4010 	push	{r4, lr}
    9b60:	e3a02040 	mov	r2, #64	; 0x40
    9b64:	e24dd008 	sub	sp, sp, #8
    9b68:	e3a01000 	mov	r1, #0
    9b6c:	e1a04000 	mov	r4, r0
    9b70:	eb000a9a 	bl	c5e0 <memset>
    9b74:	eb000a48 	bl	c49c <ticks_since_boot>
    9b78:	e1a00320 	lsr	r0, r0, #6
    9b7c:	e5840000 	str	r0, [r4]
    9b80:	eb000718 	bl	b7e8 <memory_get_total>
    9b84:	e5840010 	str	r0, [r4, #16]
    9b88:	eb000683 	bl	b59c <memory_total_free>
    9b8c:	e5840014 	str	r0, [r4, #20]
    9b90:	e28d1004 	add	r1, sp, #4
    9b94:	e3a00001 	mov	r0, #1
    9b98:	eb000771 	bl	b964 <process_get_totals>
    9b9c:	e59d2004 	ldr	r2, [sp, #4]
    9ba0:	e3003578 	movw	r3, #1400	; 0x578
    9ba4:	e3403003 	movt	r3, #3
    9ba8:	e1a01000 	mov	r1, r0
    9bac:	e5841028 	str	r1, [r4, #40]	; 0x28
    9bb0:	e3a00000 	mov	r0, #0
    9bb4:	e5933000 	ldr	r3, [r3]
    9bb8:	e59330a4 	ldr	r3, [r3, #164]	; 0xa4
    9bbc:	e5842038 	str	r2, [r4, #56]	; 0x38
    9bc0:	e1530000 	cmp	r3, r0
    9bc4:	e283203f 	add	r2, r3, #63	; 0x3f
    9bc8:	b1a03002 	movlt	r3, r2
    9bcc:	e1a03343 	asr	r3, r3, #6
    9bd0:	e584303c 	str	r3, [r4, #60]	; 0x3c
    9bd4:	e28dd008 	add	sp, sp, #8
    9bd8:	e8bd8010 	pop	{r4, pc}

00009bdc <times>:
    9bdc:	e3002580 	movw	r2, #1408	; 0x580
    9be0:	e1a03000 	mov	r3, r0
    9be4:	e3402003 	movt	r2, #3
    9be8:	e3a00000 	mov	r0, #0
    9bec:	e5922000 	ldr	r2, [r2]
    9bf0:	e59220a4 	ldr	r2, [r2, #164]	; 0xa4
    9bf4:	e5830004 	str	r0, [r3, #4]
    9bf8:	e5832000 	str	r2, [r3]
    9bfc:	e5830008 	str	r0, [r3, #8]
    9c00:	e583000c 	str	r0, [r3, #12]
    9c04:	e12fff1e 	bx	lr

00009c08 <uname>:
    9c08:	e30d1670 	movw	r1, #54896	; 0xd670
    9c0c:	e3a02041 	mov	r2, #65	; 0x41
    9c10:	e92d4010 	push	{r4, lr}
    9c14:	e1a04000 	mov	r4, r0
    9c18:	e3401000 	movt	r1, #0
    9c1c:	eb000c0e 	bl	cc5c <strlcpy>
    9c20:	e30d1678 	movw	r1, #54904	; 0xd678
    9c24:	e2840041 	add	r0, r4, #65	; 0x41
    9c28:	e3401000 	movt	r1, #0
    9c2c:	e3a02041 	mov	r2, #65	; 0x41
    9c30:	eb000c09 	bl	cc5c <strlcpy>
    9c34:	e30d1048 	movw	r1, #53320	; 0xd048
    9c38:	e2840082 	add	r0, r4, #130	; 0x82
    9c3c:	e3401000 	movt	r1, #0
    9c40:	e3a02041 	mov	r2, #65	; 0x41
    9c44:	eb000c04 	bl	cc5c <strlcpy>
    9c48:	e30d167c 	movw	r1, #54908	; 0xd67c
    9c4c:	e28400c3 	add	r0, r4, #195	; 0xc3
    9c50:	e3401000 	movt	r1, #0
    9c54:	e3a02041 	mov	r2, #65	; 0x41
    9c58:	eb000bff 	bl	cc5c <strlcpy>
    9c5c:	e30d169c 	movw	r1, #54940	; 0xd69c
    9c60:	e2840f41 	add	r0, r4, #260	; 0x104
    9c64:	e3401000 	movt	r1, #0
    9c68:	e3a02041 	mov	r2, #65	; 0x41
    9c6c:	eb000bfa 	bl	cc5c <strlcpy>
    9c70:	e2840f51 	add	r0, r4, #324	; 0x144
    9c74:	e30d16a4 	movw	r1, #54948	; 0xd6a4
    9c78:	e3401000 	movt	r1, #0
    9c7c:	e3a02041 	mov	r2, #65	; 0x41
    9c80:	e2800001 	add	r0, r0, #1
    9c84:	eb000bf4 	bl	cc5c <strlcpy>
    9c88:	e3a00000 	mov	r0, #0
    9c8c:	e8bd8010 	pop	{r4, pc}

00009c90 <fd_free>:
    9c90:	e3e00008 	mvn	r0, #8
    9c94:	e12fff1e 	bx	lr

00009c98 <fd_allocate>:
    9c98:	e30025bc 	movw	r2, #1468	; 0x5bc
    9c9c:	e3a0c00c 	mov	ip, #12
    9ca0:	e52de004 	push	{lr}		; (str lr, [sp, #-4]!)
    9ca4:	e1a0e000 	mov	lr, r0
    9ca8:	e3402003 	movt	r2, #3
    9cac:	e3a00000 	mov	r0, #0
    9cb0:	ea000002 	b	9cc0 <fd_allocate+0x28>
    9cb4:	e2800001 	add	r0, r0, #1
    9cb8:	e3500020 	cmp	r0, #32
    9cbc:	0a000009 	beq	9ce8 <fd_allocate+0x50>
    9cc0:	e003009c 	mul	r3, ip, r0
    9cc4:	e7921003 	ldr	r1, [r2, r3]
    9cc8:	e0823003 	add	r3, r2, r3
    9ccc:	e3510000 	cmp	r1, #0
    9cd0:	1afffff7 	bne	9cb4 <fd_allocate+0x1c>
    9cd4:	e583e004 	str	lr, [r3, #4]
    9cd8:	e3a02001 	mov	r2, #1
    9cdc:	e5831008 	str	r1, [r3, #8]
    9ce0:	e5832000 	str	r2, [r3]
    9ce4:	e49df004 	pop	{pc}		; (ldr pc, [sp], #4)
    9ce8:	e3e00016 	mvn	r0, #22
    9cec:	e49df004 	pop	{pc}		; (ldr pc, [sp], #4)

00009cf0 <get_inode>:
    9cf0:	e92d4030 	push	{r4, r5, lr}
    9cf4:	e1a04000 	mov	r4, r0
    9cf8:	e5d03000 	ldrb	r3, [r0]
    9cfc:	e24ddf41 	sub	sp, sp, #260	; 0x104
    9d00:	e353002f 	cmp	r3, #47	; 0x2f
    9d04:	13002580 	movwne	r2, #1408	; 0x580
    9d08:	03082410 	movweq	r2, #33808	; 0x8410
    9d0c:	13402003 	movtne	r2, #3
    9d10:	02804001 	addeq	r4, r0, #1
    9d14:	05d03001 	ldrbeq	r3, [r0, #1]
    9d18:	03402002 	movteq	r2, #2
    9d1c:	15922000 	ldrne	r2, [r2]
    9d20:	05920000 	ldreq	r0, [r2]
    9d24:	159200b4 	ldrne	r0, [r2, #180]	; 0xb4
    9d28:	e3530000 	cmp	r3, #0
    9d2c:	0a00001d 	beq	9da8 <get_inode+0xb8>
    9d30:	e3a01000 	mov	r1, #0
    9d34:	e2844001 	add	r4, r4, #1
    9d38:	e1a0c00d 	mov	ip, sp
    9d3c:	e1a05001 	mov	r5, r1
    9d40:	ea000007 	b	9d64 <get_inode+0x74>
    9d44:	e4c23001 	strb	r3, [r2], #1
    9d48:	e5d43000 	ldrb	r3, [r4]
    9d4c:	e3530000 	cmp	r3, #0
    9d50:	0a000010 	beq	9d98 <get_inode+0xa8>
    9d54:	e35100ff 	cmp	r1, #255	; 0xff
    9d58:	0a000014 	beq	9db0 <get_inode+0xc0>
    9d5c:	e2844001 	add	r4, r4, #1
    9d60:	e1a0c002 	mov	ip, r2
    9d64:	e353002f 	cmp	r3, #47	; 0x2f
    9d68:	e1a0200c 	mov	r2, ip
    9d6c:	e2811001 	add	r1, r1, #1
    9d70:	1afffff3 	bne	9d44 <get_inode+0x54>
    9d74:	e5cc5000 	strb	r5, [ip]
    9d78:	e1a0100d 	mov	r1, sp
    9d7c:	eb000126 	bl	a21c <romfs_get_inode>
    9d80:	e5d43000 	ldrb	r3, [r4]
    9d84:	e3a01000 	mov	r1, #0
    9d88:	e1a0200d 	mov	r2, sp
    9d8c:	e1530001 	cmp	r3, r1
    9d90:	1afffff1 	bne	9d5c <get_inode+0x6c>
    9d94:	e1a0200d 	mov	r2, sp
    9d98:	e3a03000 	mov	r3, #0
    9d9c:	e5c23000 	strb	r3, [r2]
    9da0:	e1a0100d 	mov	r1, sp
    9da4:	eb00011c 	bl	a21c <romfs_get_inode>
    9da8:	e28ddf41 	add	sp, sp, #260	; 0x104
    9dac:	e8bd8030 	pop	{r4, r5, pc}
    9db0:	e3a03000 	mov	r3, #0
    9db4:	e5cc3001 	strb	r3, [ip, #1]
    9db8:	eafffff8 	b	9da0 <get_inode+0xb0>

00009dbc <close>:
    9dbc:	e3e00008 	mvn	r0, #8
    9dc0:	e12fff1e 	bx	lr

00009dc4 <open>:
    9dc4:	e92d4010 	push	{r4, lr}
    9dc8:	ebffffc8 	bl	9cf0 <get_inode>
    9dcc:	e3500000 	cmp	r0, #0
    9dd0:	ba000001 	blt	9ddc <open+0x18>
    9dd4:	e8bd4010 	pop	{r4, lr}
    9dd8:	eaffffae 	b	9c98 <fd_allocate>
    9ddc:	e3e00001 	mvn	r0, #1
    9de0:	e8bd8010 	pop	{r4, pc}

00009de4 <read>:
    9de4:	e250c000 	subs	ip, r0, #0
    9de8:	e1a03002 	mov	r3, r2
    9dec:	e92d4010 	push	{r4, lr}
    9df0:	e1a0e001 	mov	lr, r1
    9df4:	0a000012 	beq	9e44 <read+0x60>
    9df8:	e35c001f 	cmp	ip, #31
    9dfc:	8a000014 	bhi	9e54 <read+0x70>
    9e00:	e30015bc 	movw	r1, #1468	; 0x5bc
    9e04:	e3a0200c 	mov	r2, #12
    9e08:	e3401003 	movt	r1, #3
    9e0c:	e0020c92 	mul	r2, r2, ip
    9e10:	e7910002 	ldr	r0, [r1, r2]
    9e14:	e0814002 	add	r4, r1, r2
    9e18:	e3500000 	cmp	r0, #0
    9e1c:	0a00000e 	beq	9e5c <read+0x78>
    9e20:	e1c400d4 	ldrd	r0, [r4, #4]
    9e24:	e1a0200e 	mov	r2, lr
    9e28:	eb000161 	bl	a3b4 <romfs_read_file>
    9e2c:	e3500000 	cmp	r0, #0
    9e30:	d8bd8010 	pople	{r4, pc}
    9e34:	e5943008 	ldr	r3, [r4, #8]
    9e38:	e0833000 	add	r3, r3, r0
    9e3c:	e5843008 	str	r3, [r4, #8]
    9e40:	e8bd8010 	pop	{r4, pc}
    9e44:	e1a0000e 	mov	r0, lr
    9e48:	e1a01002 	mov	r1, r2
    9e4c:	e8bd4010 	pop	{r4, lr}
    9e50:	ea00022e 	b	a710 <console_read>
    9e54:	e3e00016 	mvn	r0, #22
    9e58:	e8bd8010 	pop	{r4, pc}
    9e5c:	e30d06ac 	movw	r0, #54956	; 0xd6ac
    9e60:	e1a0100c 	mov	r1, ip
    9e64:	e3400000 	movt	r0, #0
    9e68:	eb000b10 	bl	cab0 <printk>
    9e6c:	e3e00008 	mvn	r0, #8
    9e70:	e8bd8010 	pop	{r4, pc}

00009e74 <write>:
    9e74:	e240c001 	sub	ip, r0, #1
    9e78:	e35c0001 	cmp	ip, #1
    9e7c:	8a000002 	bhi	9e8c <write+0x18>
    9e80:	e1a00001 	mov	r0, r1
    9e84:	e1a01002 	mov	r1, r2
    9e88:	ea00021f 	b	a70c <console_write>
    9e8c:	e1a03000 	mov	r3, r0
    9e90:	e30d06d8 	movw	r0, #55000	; 0xd6d8
    9e94:	e3400000 	movt	r0, #0
    9e98:	e1a01003 	mov	r1, r3
    9e9c:	e92d4010 	push	{r4, lr}
    9ea0:	eb000b02 	bl	cab0 <printk>
    9ea4:	e3e00008 	mvn	r0, #8
    9ea8:	e8bd8010 	pop	{r4, pc}

00009eac <stat>:
    9eac:	e92d4010 	push	{r4, lr}
    9eb0:	e1a04001 	mov	r4, r1
    9eb4:	ebffff8d 	bl	9cf0 <get_inode>
    9eb8:	e3500000 	cmp	r0, #0
    9ebc:	ba000002 	blt	9ecc <stat+0x20>
    9ec0:	e1a01004 	mov	r1, r4
    9ec4:	e8bd4010 	pop	{r4, lr}
    9ec8:	ea000083 	b	a0dc <romfs_stat>
    9ecc:	e3e00001 	mvn	r0, #1
    9ed0:	e8bd8010 	pop	{r4, pc}

00009ed4 <mount>:
    9ed4:	e30d105c 	movw	r1, #53340	; 0xd05c
    9ed8:	e1a00002 	mov	r0, r2
    9edc:	e92d4010 	push	{r4, lr}
    9ee0:	e3a02005 	mov	r2, #5
    9ee4:	e3401000 	movt	r1, #0
    9ee8:	eb000b20 	bl	cb70 <strncmp>
    9eec:	e2504000 	subs	r4, r0, #0
    9ef0:	1a000008 	bne	9f18 <mount+0x44>
    9ef4:	e300073c 	movw	r0, #1852	; 0x73c
    9ef8:	e3400003 	movt	r0, #3
    9efc:	eb000103 	bl	a310 <romfs_mount>
    9f00:	e3500000 	cmp	r0, #0
    9f04:	a3083410 	movwge	r3, #33808	; 0x8410
    9f08:	a3403002 	movtge	r3, #2
    9f0c:	a5830000 	strge	r0, [r3]
    9f10:	a1a00004 	movge	r0, r4
    9f14:	e8bd8010 	pop	{r4, pc}
    9f18:	e3e00012 	mvn	r0, #18
    9f1c:	e8bd8010 	pop	{r4, pc}

00009f20 <fd_table_init>:
    9f20:	e30005bc 	movw	r0, #1468	; 0x5bc
    9f24:	e3a01000 	mov	r1, #0
    9f28:	e3400003 	movt	r0, #3
    9f2c:	e1a03000 	mov	r3, r0
    9f30:	e2802d06 	add	r2, r0, #384	; 0x180
    9f34:	e483100c 	str	r1, [r3], #12
    9f38:	e1530002 	cmp	r3, r2
    9f3c:	1afffffc 	bne	9f34 <fd_table_init+0x14>
    9f40:	e3a03001 	mov	r3, #1
    9f44:	e5803000 	str	r3, [r0]
    9f48:	e580300c 	str	r3, [r0, #12]
    9f4c:	e5803018 	str	r3, [r0, #24]
    9f50:	e12fff1e 	bx	lr

00009f54 <getdents>:
    9f54:	e350001f 	cmp	r0, #31
    9f58:	8a000017 	bhi	9fbc <getdents+0x68>
    9f5c:	e92d4070 	push	{r4, r5, r6, lr}
    9f60:	e3a0c00c 	mov	ip, #12
    9f64:	e300e5bc 	movw	lr, #1468	; 0x5bc
    9f68:	e1a03002 	mov	r3, r2
    9f6c:	e340e003 	movt	lr, #3
    9f70:	e1a05001 	mov	r5, r1
    9f74:	e00c009c 	mul	ip, ip, r0
    9f78:	e1a04000 	mov	r4, r0
    9f7c:	e79e200c 	ldr	r2, [lr, ip]
    9f80:	e08e100c 	add	r1, lr, ip
    9f84:	e3520000 	cmp	r2, #0
    9f88:	0a000005 	beq	9fa4 <getdents+0x50>
    9f8c:	e5910004 	ldr	r0, [r1, #4]
    9f90:	e28cc008 	add	ip, ip, #8
    9f94:	e08e100c 	add	r1, lr, ip
    9f98:	e1a02005 	mov	r2, r5
    9f9c:	e8bd4070 	pop	{r4, r5, r6, lr}
    9fa0:	ea000124 	b	a438 <romfs_getdents>
    9fa4:	e30d0700 	movw	r0, #55040	; 0xd700
    9fa8:	e1a01004 	mov	r1, r4
    9fac:	e3400000 	movt	r0, #0
    9fb0:	eb000abe 	bl	cab0 <printk>
    9fb4:	e3e00008 	mvn	r0, #8
    9fb8:	e8bd8070 	pop	{r4, r5, r6, pc}
    9fbc:	e3e00016 	mvn	r0, #22
    9fc0:	e12fff1e 	bx	lr

00009fc4 <chdir>:
    9fc4:	e92d4010 	push	{r4, lr}
    9fc8:	e24dd038 	sub	sp, sp, #56	; 0x38
    9fcc:	ebffff47 	bl	9cf0 <get_inode>
    9fd0:	e2504000 	subs	r4, r0, #0
    9fd4:	ba00000e 	blt	a014 <chdir+0x50>
    9fd8:	e28d1004 	add	r1, sp, #4
    9fdc:	eb00003e 	bl	a0dc <romfs_stat>
    9fe0:	e3500000 	cmp	r0, #0
    9fe4:	ba000008 	blt	a00c <chdir+0x48>
    9fe8:	e59d300c 	ldr	r3, [sp, #12]
    9fec:	e2033a0f 	and	r3, r3, #61440	; 0xf000
    9ff0:	e3530901 	cmp	r3, #16384	; 0x4000
    9ff4:	1a000008 	bne	a01c <chdir+0x58>
    9ff8:	e3003580 	movw	r3, #1408	; 0x580
    9ffc:	e3a00000 	mov	r0, #0
    a000:	e3403003 	movt	r3, #3
    a004:	e5933000 	ldr	r3, [r3]
    a008:	e58340b4 	str	r4, [r3, #180]	; 0xb4
    a00c:	e28dd038 	add	sp, sp, #56	; 0x38
    a010:	e8bd8010 	pop	{r4, pc}
    a014:	e3e00001 	mvn	r0, #1
    a018:	eafffffb 	b	a00c <chdir+0x48>
    a01c:	e3e00013 	mvn	r0, #19
    a020:	eafffff9 	b	a00c <chdir+0x48>

0000a024 <getcwd>:
    a024:	e3003580 	movw	r3, #1408	; 0x580
    a028:	e3403003 	movt	r3, #3
    a02c:	e92d4030 	push	{r4, r5, lr}
    a030:	e24dd03c 	sub	sp, sp, #60	; 0x3c
    a034:	e5933000 	ldr	r3, [r3]
    a038:	e1a04000 	mov	r4, r0
    a03c:	e1a05001 	mov	r5, r1
    a040:	e28d1004 	add	r1, sp, #4
    a044:	e59300b4 	ldr	r0, [r3, #180]	; 0xb4
    a048:	eb000023 	bl	a0dc <romfs_stat>
    a04c:	e30d1730 	movw	r1, #55088	; 0xd730
    a050:	e1a02005 	mov	r2, r5
    a054:	e3401000 	movt	r1, #0
    a058:	e1a00004 	mov	r0, r4
    a05c:	eb000ae6 	bl	cbfc <strncpy>
    a060:	e1a00004 	mov	r0, r4
    a064:	e28dd03c 	add	sp, sp, #60	; 0x3c
    a068:	e8bd8030 	pop	{r4, r5, pc}

0000a06c <romfs_read_string>:
    a06c:	e92d40f0 	push	{r4, r5, r6, r7, lr}
    a070:	e1a07000 	mov	r7, r0
    a074:	e24dd014 	sub	sp, sp, #20
    a078:	e1a06001 	mov	r6, r1
    a07c:	e1a04002 	mov	r4, r2
    a080:	e1a05000 	mov	r5, r0
    a084:	e3a03000 	mov	r3, #0
    a088:	e5c13000 	strb	r3, [r1]
    a08c:	e3a01010 	mov	r1, #16
    a090:	e1a00005 	mov	r0, r5
    a094:	e0855001 	add	r5, r5, r1
    a098:	e1a0200d 	mov	r2, sp
    a09c:	eb000155 	bl	a5f8 <ramdisk_read>
    a0a0:	e3540000 	cmp	r4, #0
    a0a4:	e1a0100d 	mov	r1, sp
    a0a8:	e1a00006 	mov	r0, r6
    a0ac:	da000003 	ble	a0c0 <romfs_read_string+0x54>
    a0b0:	e3540010 	cmp	r4, #16
    a0b4:	b1a02004 	movlt	r2, r4
    a0b8:	a3a02010 	movge	r2, #16
    a0bc:	eb000b00 	bl	ccc4 <strncat>
    a0c0:	e5dd300f 	ldrb	r3, [sp, #15]
    a0c4:	e2444010 	sub	r4, r4, #16
    a0c8:	e3530000 	cmp	r3, #0
    a0cc:	1affffee 	bne	a08c <romfs_read_string+0x20>
    a0d0:	e0450007 	sub	r0, r5, r7
    a0d4:	e28dd014 	add	sp, sp, #20
    a0d8:	e8bd80f0 	pop	{r4, r5, r6, r7, pc}

0000a0dc <romfs_stat>:
    a0dc:	e92d4070 	push	{r4, r5, r6, lr}
    a0e0:	e1a06000 	mov	r6, r0
    a0e4:	e24dd008 	sub	sp, sp, #8
    a0e8:	e1a05001 	mov	r5, r1
    a0ec:	e3a02034 	mov	r2, #52	; 0x34
    a0f0:	e3a01000 	mov	r1, #0
    a0f4:	e1a00005 	mov	r0, r5
    a0f8:	eb000938 	bl	c5e0 <memset>
    a0fc:	e5856004 	str	r6, [r5, #4]
    a100:	e30031b6 	movw	r3, #438	; 0x1b6
    a104:	e5853008 	str	r3, [r5, #8]
    a108:	e28d2004 	add	r2, sp, #4
    a10c:	e3a01004 	mov	r1, #4
    a110:	e1a00006 	mov	r0, r6
    a114:	eb000137 	bl	a5f8 <ramdisk_read>
    a118:	e59d4004 	ldr	r4, [sp, #4]
    a11c:	e3a01004 	mov	r1, #4
    a120:	e6bf4f34 	rev	r4, r4
    a124:	e0860001 	add	r0, r6, r1
    a128:	e3140008 	tst	r4, #8
    a12c:	e2044007 	and	r4, r4, #7
    a130:	e28d2004 	add	r2, sp, #4
    a134:	15953008 	ldrne	r3, [r5, #8]
    a138:	e2444001 	sub	r4, r4, #1
    a13c:	13833049 	orrne	r3, r3, #73	; 0x49
    a140:	15853008 	strne	r3, [r5, #8]
    a144:	eb00012b 	bl	a5f8 <ramdisk_read>
    a148:	e59d3004 	ldr	r3, [sp, #4]
    a14c:	e6bf3f33 	rev	r3, r3
    a150:	e3540006 	cmp	r4, #6
    a154:	979ff104 	ldrls	pc, [pc, r4, lsl #2]
    a158:	ea00002d 	b	a214 <romfs_stat+0x138>
    a15c:	0000a204 	andeq	sl, r0, r4, lsl #4
    a160:	0000a1f4 	strdeq	sl, [r0], -r4
    a164:	0000a1e4 	andeq	sl, r0, r4, ror #3
    a168:	0000a1d0 	ldrdeq	sl, [r0], -r0
    a16c:	0000a1bc 			; <UNDEFINED> instruction: 0x0000a1bc
    a170:	0000a1ac 	andeq	sl, r0, ip, lsr #3
    a174:	0000a178 	andeq	sl, r0, r8, ror r1
    a178:	e5953008 	ldr	r3, [r5, #8]
    a17c:	e3833a01 	orr	r3, r3, #4096	; 0x1000
    a180:	e5853008 	str	r3, [r5, #8]
    a184:	e28d2004 	add	r2, sp, #4
    a188:	e2860008 	add	r0, r6, #8
    a18c:	e3a01004 	mov	r1, #4
    a190:	eb000118 	bl	a5f8 <ramdisk_read>
    a194:	e59d3004 	ldr	r3, [sp, #4]
    a198:	e3a00000 	mov	r0, #0
    a19c:	e6bf3f33 	rev	r3, r3
    a1a0:	e585301c 	str	r3, [r5, #28]
    a1a4:	e28dd008 	add	sp, sp, #8
    a1a8:	e8bd8070 	pop	{r4, r5, r6, pc}
    a1ac:	e5953008 	ldr	r3, [r5, #8]
    a1b0:	e3833903 	orr	r3, r3, #49152	; 0xc000
    a1b4:	e5853008 	str	r3, [r5, #8]
    a1b8:	eafffff1 	b	a184 <romfs_stat+0xa8>
    a1bc:	e5952008 	ldr	r2, [r5, #8]
    a1c0:	e5853018 	str	r3, [r5, #24]
    a1c4:	e3823a02 	orr	r3, r2, #8192	; 0x2000
    a1c8:	e5853008 	str	r3, [r5, #8]
    a1cc:	eaffffec 	b	a184 <romfs_stat+0xa8>
    a1d0:	e5952008 	ldr	r2, [r5, #8]
    a1d4:	e5853018 	str	r3, [r5, #24]
    a1d8:	e3823a06 	orr	r3, r2, #24576	; 0x6000
    a1dc:	e5853008 	str	r3, [r5, #8]
    a1e0:	eaffffe7 	b	a184 <romfs_stat+0xa8>
    a1e4:	e5953008 	ldr	r3, [r5, #8]
    a1e8:	e3833a0a 	orr	r3, r3, #40960	; 0xa000
    a1ec:	e5853008 	str	r3, [r5, #8]
    a1f0:	eaffffe3 	b	a184 <romfs_stat+0xa8>
    a1f4:	e5953008 	ldr	r3, [r5, #8]
    a1f8:	e3833902 	orr	r3, r3, #32768	; 0x8000
    a1fc:	e5853008 	str	r3, [r5, #8]
    a200:	eaffffdf 	b	a184 <romfs_stat+0xa8>
    a204:	e5953008 	ldr	r3, [r5, #8]
    a208:	e3833901 	orr	r3, r3, #16384	; 0x4000
    a20c:	e5853008 	str	r3, [r5, #8]
    a210:	eaffffdb 	b	a184 <romfs_stat+0xa8>
    a214:	e1a06003 	mov	r6, r3
    a218:	eaffffb3 	b	a0ec <romfs_stat+0x10>

0000a21c <romfs_get_inode>:
    a21c:	e92d4070 	push	{r4, r5, r6, lr}
    a220:	e24ddf42 	sub	sp, sp, #264	; 0x108
    a224:	e1a05000 	mov	r5, r0
    a228:	e1a0200d 	mov	r2, sp
    a22c:	e1a06001 	mov	r6, r1
    a230:	e3a01004 	mov	r1, #4
    a234:	eb0000ef 	bl	a5f8 <ramdisk_read>
    a238:	e59d4000 	ldr	r4, [sp]
    a23c:	e2850004 	add	r0, r5, #4
    a240:	e1a0200d 	mov	r2, sp
    a244:	e3a01004 	mov	r1, #4
    a248:	e6bf4f34 	rev	r4, r4
    a24c:	e2044007 	and	r4, r4, #7
    a250:	eb0000e8 	bl	a5f8 <ramdisk_read>
    a254:	e59d5000 	ldr	r5, [sp]
    a258:	e3540001 	cmp	r4, #1
    a25c:	e6bf5f35 	rev	r5, r5
    a260:	0a000002 	beq	a270 <romfs_get_inode+0x54>
    a264:	ea000027 	b	a308 <romfs_get_inode+0xec>
    a268:	e2545000 	subs	r5, r4, #0
    a26c:	0a000022 	beq	a2fc <romfs_get_inode+0xe0>
    a270:	e1a0200d 	mov	r2, sp
    a274:	e3a01004 	mov	r1, #4
    a278:	e1a00005 	mov	r0, r5
    a27c:	eb0000dd 	bl	a5f8 <ramdisk_read>
    a280:	e59d3000 	ldr	r3, [sp]
    a284:	e3a02c01 	mov	r2, #256	; 0x100
    a288:	e28d1008 	add	r1, sp, #8
    a28c:	e2850010 	add	r0, r5, #16
    a290:	e6bf3f33 	rev	r3, r3
    a294:	e3c3400f 	bic	r4, r3, #15
    a298:	ebffff73 	bl	a06c <romfs_read_string>
    a29c:	e3a02c01 	mov	r2, #256	; 0x100
    a2a0:	e28d1008 	add	r1, sp, #8
    a2a4:	e1a00006 	mov	r0, r6
    a2a8:	eb000a30 	bl	cb70 <strncmp>
    a2ac:	e3500000 	cmp	r0, #0
    a2b0:	1affffec 	bne	a268 <romfs_get_inode+0x4c>
    a2b4:	e28d2004 	add	r2, sp, #4
    a2b8:	e3a01004 	mov	r1, #4
    a2bc:	e1a00005 	mov	r0, r5
    a2c0:	eb0000cc 	bl	a5f8 <ramdisk_read>
    a2c4:	e59d4004 	ldr	r4, [sp, #4]
    a2c8:	e3a01004 	mov	r1, #4
    a2cc:	e0850001 	add	r0, r5, r1
    a2d0:	e28d2004 	add	r2, sp, #4
    a2d4:	eb0000c7 	bl	a5f8 <ramdisk_read>
    a2d8:	e6bf4f34 	rev	r4, r4
    a2dc:	e59d3004 	ldr	r3, [sp, #4]
    a2e0:	e3140007 	tst	r4, #7
    a2e4:	e1a00005 	mov	r0, r5
    a2e8:	e1a05003 	mov	r5, r3
    a2ec:	e6bf5f35 	rev	r5, r5
    a2f0:	0affffef 	beq	a2b4 <romfs_get_inode+0x98>
    a2f4:	e28ddf42 	add	sp, sp, #264	; 0x108
    a2f8:	e8bd8070 	pop	{r4, r5, r6, pc}
    a2fc:	e3e00000 	mvn	r0, #0
    a300:	e28ddf42 	add	sp, sp, #264	; 0x108
    a304:	e8bd8070 	pop	{r4, r5, r6, pc}
    a308:	e3e00013 	mvn	r0, #19
    a30c:	eafffff8 	b	a2f4 <romfs_get_inode+0xd8>

0000a310 <romfs_mount>:
    a310:	e3a01008 	mov	r1, #8
    a314:	e3a00000 	mov	r0, #0
    a318:	e52de004 	push	{lr}		; (str lr, [sp, #-4]!)
    a31c:	e24dd034 	sub	sp, sp, #52	; 0x34
    a320:	e08d2001 	add	r2, sp, r1
    a324:	eb0000b3 	bl	a5f8 <ramdisk_read>
    a328:	e30d1738 	movw	r1, #55096	; 0xd738
    a32c:	e28d0008 	add	r0, sp, #8
    a330:	e3401000 	movt	r1, #0
    a334:	e3a02008 	mov	r2, #8
    a338:	eb000a1d 	bl	cbb4 <memcmp>
    a33c:	e3500000 	cmp	r0, #0
    a340:	1a000014 	bne	a398 <romfs_mount+0x88>
    a344:	e3a01004 	mov	r1, #4
    a348:	e3a00008 	mov	r0, #8
    a34c:	e08d2001 	add	r2, sp, r1
    a350:	eb0000a8 	bl	a5f8 <ramdisk_read>
    a354:	e59d3004 	ldr	r3, [sp, #4]
    a358:	e28d2004 	add	r2, sp, #4
    a35c:	e3a01004 	mov	r1, #4
    a360:	e3a0000c 	mov	r0, #12
    a364:	e6bf3f33 	rev	r3, r3
    a368:	e58d3010 	str	r3, [sp, #16]
    a36c:	eb0000a1 	bl	a5f8 <ramdisk_read>
    a370:	e59d3004 	ldr	r3, [sp, #4]
    a374:	e3a02010 	mov	r2, #16
    a378:	e1a00002 	mov	r0, r2
    a37c:	e28d1018 	add	r1, sp, #24
    a380:	e6bf3f33 	rev	r3, r3
    a384:	e58d3014 	str	r3, [sp, #20]
    a388:	ebffff37 	bl	a06c <romfs_read_string>
    a38c:	e2800010 	add	r0, r0, #16
    a390:	e28dd034 	add	sp, sp, #52	; 0x34
    a394:	e49df004 	pop	{pc}		; (ldr pc, [sp], #4)
    a398:	e30d0744 	movw	r0, #55108	; 0xd744
    a39c:	e3400000 	movt	r0, #0
    a3a0:	eb0009c2 	bl	cab0 <printk>
    a3a4:	e3e00000 	mvn	r0, #0
    a3a8:	eafffff8 	b	a390 <romfs_mount+0x80>

0000a3ac <romfs_statfs>:
    a3ac:	e3a00000 	mov	r0, #0
    a3b0:	e12fff1e 	bx	lr

0000a3b4 <romfs_read_file>:
    a3b4:	e92d43f0 	push	{r4, r5, r6, r7, r8, r9, lr}
    a3b8:	e24dd01c 	sub	sp, sp, #28
    a3bc:	e1a05000 	mov	r5, r0
    a3c0:	e1a07001 	mov	r7, r1
    a3c4:	e1a09002 	mov	r9, r2
    a3c8:	e2800008 	add	r0, r0, #8
    a3cc:	e28d2004 	add	r2, sp, #4
    a3d0:	e3a01004 	mov	r1, #4
    a3d4:	e1a08003 	mov	r8, r3
    a3d8:	e2855010 	add	r5, r5, #16
    a3dc:	e3a04000 	mov	r4, #0
    a3e0:	eb000084 	bl	a5f8 <ramdisk_read>
    a3e4:	e59d6004 	ldr	r6, [sp, #4]
    a3e8:	e6bf6f36 	rev	r6, r6
    a3ec:	ea000000 	b	a3f4 <romfs_read_file+0x40>
    a3f0:	e2844010 	add	r4, r4, #16
    a3f4:	e0850004 	add	r0, r5, r4
    a3f8:	e28d2008 	add	r2, sp, #8
    a3fc:	e3a01010 	mov	r1, #16
    a400:	eb00007c 	bl	a5f8 <ramdisk_read>
    a404:	e5dd0017 	ldrb	r0, [sp, #23]
    a408:	e3500000 	cmp	r0, #0
    a40c:	1afffff7 	bne	a3f0 <romfs_read_file+0x3c>
    a410:	e0461007 	sub	r1, r6, r7
    a414:	e2840010 	add	r0, r4, #16
    a418:	e1510008 	cmp	r1, r8
    a41c:	e1a02009 	mov	r2, r9
    a420:	e0800005 	add	r0, r0, r5
    a424:	21a01008 	movcs	r1, r8
    a428:	e0800007 	add	r0, r0, r7
    a42c:	eb000071 	bl	a5f8 <ramdisk_read>
    a430:	e28dd01c 	add	sp, sp, #28
    a434:	e8bd83f0 	pop	{r4, r5, r6, r7, r8, r9, pc}

0000a438 <romfs_getdents>:
    a438:	e92d4ff0 	push	{r4, r5, r6, r7, r8, r9, sl, fp, lr}
    a43c:	e24dd02c 	sub	sp, sp, #44	; 0x2c
    a440:	e5917000 	ldr	r7, [r1]
    a444:	e58d100c 	str	r1, [sp, #12]
    a448:	e58d3008 	str	r3, [sp, #8]
    a44c:	e3770001 	cmn	r7, #1
    a450:	03a09000 	moveq	r9, #0
    a454:	0a00003b 	beq	a548 <romfs_getdents+0x110>
    a458:	e3570000 	cmp	r7, #0
    a45c:	e1a06002 	mov	r6, r2
    a460:	128db014 	addne	fp, sp, #20
    a464:	0a000040 	beq	a56c <romfs_getdents+0x134>
    a468:	e3a09000 	mov	r9, #0
    a46c:	e1a0200b 	mov	r2, fp
    a470:	e3a01004 	mov	r1, #4
    a474:	e1a00007 	mov	r0, r7
    a478:	e2878010 	add	r8, r7, #16
    a47c:	e3a04000 	mov	r4, #0
    a480:	eb00005c 	bl	a5f8 <ramdisk_read>
    a484:	e59d5014 	ldr	r5, [sp, #20]
    a488:	e6bf5f35 	rev	r5, r5
    a48c:	e3c5500f 	bic	r5, r5, #15
    a490:	ea000000 	b	a498 <romfs_getdents+0x60>
    a494:	e2844010 	add	r4, r4, #16
    a498:	e0880004 	add	r0, r8, r4
    a49c:	e28d2018 	add	r2, sp, #24
    a4a0:	e3a01010 	mov	r1, #16
    a4a4:	eb000053 	bl	a5f8 <ramdisk_read>
    a4a8:	e5dd3027 	ldrb	r3, [sp, #39]	; 0x27
    a4ac:	e3530000 	cmp	r3, #0
    a4b0:	1afffff7 	bne	a494 <romfs_getdents+0x5c>
    a4b4:	e28d0018 	add	r0, sp, #24
    a4b8:	eb000a29 	bl	cd64 <strlen>
    a4bc:	e0802004 	add	r2, r0, r4
    a4c0:	e282400d 	add	r4, r2, #13
    a4c4:	e2143003 	ands	r3, r4, #3
    a4c8:	0a000004 	beq	a4e0 <romfs_getdents+0xa8>
    a4cc:	e2741000 	rsbs	r1, r4, #0
    a4d0:	e2011003 	and	r1, r1, #3
    a4d4:	52613000 	rsbpl	r3, r1, #0
    a4d8:	e2633004 	rsb	r3, r3, #4
    a4dc:	e0844003 	add	r4, r4, r3
    a4e0:	e59d3008 	ldr	r3, [sp, #8]
    a4e4:	e084a009 	add	sl, r4, r9
    a4e8:	e15a0003 	cmp	sl, r3
    a4ec:	8a000019 	bhi	a558 <romfs_getdents+0x120>
    a4f0:	e3570000 	cmp	r7, #0
    a4f4:	0a000016 	beq	a554 <romfs_getdents+0x11c>
    a4f8:	e5867000 	str	r7, [r6]
    a4fc:	e286100c 	add	r1, r6, #12
    a500:	e5864004 	str	r4, [r6, #4]
    a504:	e1a00008 	mov	r0, r8
    a508:	e5864008 	str	r4, [r6, #8]
    a50c:	e1a07005 	mov	r7, r5
    a510:	e58d2004 	str	r2, [sp, #4]
    a514:	ebfffed4 	bl	a06c <romfs_read_string>
    a518:	e59d2004 	ldr	r2, [sp, #4]
    a51c:	e3a03000 	mov	r3, #0
    a520:	e1a0900a 	mov	r9, sl
    a524:	e0862002 	add	r2, r6, r2
    a528:	e0866004 	add	r6, r6, r4
    a52c:	e5c2300c 	strb	r3, [r2, #12]
    a530:	eaffffcd 	b	a46c <romfs_getdents+0x34>
    a534:	e30d075c 	movw	r0, #55132	; 0xd75c
    a538:	e1a01004 	mov	r1, r4
    a53c:	e3400000 	movt	r0, #0
    a540:	e3e09013 	mvn	r9, #19
    a544:	eb000959 	bl	cab0 <printk>
    a548:	e1a00009 	mov	r0, r9
    a54c:	e28dd02c 	add	sp, sp, #44	; 0x2c
    a550:	e8bd8ff0 	pop	{r4, r5, r6, r7, r8, r9, sl, fp, pc}
    a554:	e3e07000 	mvn	r7, #0
    a558:	e59d300c 	ldr	r3, [sp, #12]
    a55c:	e1a00009 	mov	r0, r9
    a560:	e5837000 	str	r7, [r3]
    a564:	e28dd02c 	add	sp, sp, #44	; 0x2c
    a568:	e8bd8ff0 	pop	{r4, r5, r6, r7, r8, r9, sl, fp, pc}
    a56c:	e28db014 	add	fp, sp, #20
    a570:	e3a01004 	mov	r1, #4
    a574:	e1a0200b 	mov	r2, fp
    a578:	e1a04000 	mov	r4, r0
    a57c:	eb00001d 	bl	a5f8 <ramdisk_read>
    a580:	e59d2014 	ldr	r2, [sp, #20]
    a584:	e1a03002 	mov	r3, r2
    a588:	e6bf3f33 	rev	r3, r3
    a58c:	e2033007 	and	r3, r3, #7
    a590:	e3530001 	cmp	r3, #1
    a594:	1affffe6 	bne	a534 <romfs_getdents+0xfc>
    a598:	e2840004 	add	r0, r4, #4
    a59c:	e1a0200b 	mov	r2, fp
    a5a0:	e3a01004 	mov	r1, #4
    a5a4:	eb000013 	bl	a5f8 <ramdisk_read>
    a5a8:	e59d7014 	ldr	r7, [sp, #20]
    a5ac:	e6bf7f37 	rev	r7, r7
    a5b0:	eaffffac 	b	a468 <romfs_getdents+0x30>

0000a5b4 <drivers_init_all>:
    a5b4:	e92d4010 	push	{r4, lr}
    a5b8:	eb00007d 	bl	a7b4 <led_init>
    a5bc:	eb000116 	bl	aa1c <timer_init>
    a5c0:	e8bd4010 	pop	{r4, lr}
    a5c4:	ea000110 	b	aa0c <serial_enable_interrupts>

0000a5c8 <bcm2835_write>:
    a5c8:	e300358c 	movw	r3, #1420	; 0x58c
    a5cc:	e3403003 	movt	r3, #3
    a5d0:	e5933000 	ldr	r3, [r3]
    a5d4:	e0800003 	add	r0, r0, r3
    a5d8:	e5801000 	str	r1, [r0]
    a5dc:	e12fff1e 	bx	lr

0000a5e0 <bcm2835_read>:
    a5e0:	e300358c 	movw	r3, #1420	; 0x58c
    a5e4:	e3403003 	movt	r3, #3
    a5e8:	e5933000 	ldr	r3, [r3]
    a5ec:	e0800003 	add	r0, r0, r3
    a5f0:	e5900000 	ldr	r0, [r0]
    a5f4:	e12fff1e 	bx	lr

0000a5f8 <ramdisk_read>:
    a5f8:	e300c77c 	movw	ip, #1916	; 0x77c
    a5fc:	e340c003 	movt	ip, #3
    a600:	e92d4010 	push	{r4, lr}
    a604:	e1a04001 	mov	r4, r1
    a608:	e59ce004 	ldr	lr, [ip, #4]
    a60c:	e0801001 	add	r1, r0, r1
    a610:	e151000e 	cmp	r1, lr
    a614:	8a000007 	bhi	a638 <ramdisk_read+0x40>
    a618:	e59c1000 	ldr	r1, [ip]
    a61c:	e1a03000 	mov	r3, r0
    a620:	e1a00002 	mov	r0, r2
    a624:	e1a02004 	mov	r2, r4
    a628:	e0811003 	add	r1, r1, r3
    a62c:	eb00079e 	bl	c4ac <memcpy>
    a630:	e1a00004 	mov	r0, r4
    a634:	e8bd8010 	pop	{r4, pc}
    a638:	e30d0794 	movw	r0, #55188	; 0xd794
    a63c:	e1a0200e 	mov	r2, lr
    a640:	e3400000 	movt	r0, #0
    a644:	eb000919 	bl	cab0 <printk>
    a648:	e3e00021 	mvn	r0, #33	; 0x21
    a64c:	e8bd8010 	pop	{r4, pc}

0000a650 <ramdisk_init>:
    a650:	e92d4070 	push	{r4, r5, r6, lr}
    a654:	e1a04000 	mov	r4, r0
    a658:	e30d07bc 	movw	r0, #55228	; 0xd7bc
    a65c:	e1a02004 	mov	r2, r4
    a660:	e3400000 	movt	r0, #0
    a664:	e1a05001 	mov	r5, r1
    a668:	eb000910 	bl	cab0 <printk>
    a66c:	e300377c 	movw	r3, #1916	; 0x77c
    a670:	e3a00000 	mov	r0, #0
    a674:	e3403003 	movt	r3, #3
    a678:	e1c340f0 	strd	r4, [r3]
    a67c:	e8bd8070 	pop	{r4, r5, r6, pc}

0000a680 <console_insert_char>:
    a680:	e3083414 	movw	r3, #33812	; 0x8414
    a684:	e3403002 	movt	r3, #2
    a688:	e8931002 	ldm	r3, {r1, ip}
    a68c:	e2812001 	add	r2, r1, #1
    a690:	e3520c01 	cmp	r2, #256	; 0x100
    a694:	23a02000 	movcs	r2, #0
    a698:	e15c0002 	cmp	ip, r2
    a69c:	0a000017 	beq	a700 <console_insert_char+0x80>
    a6a0:	e0831001 	add	r1, r3, r1
    a6a4:	e3500002 	cmp	r0, #2
    a6a8:	e92d4010 	push	{r4, lr}
    a6ac:	e5832000 	str	r2, [r3]
    a6b0:	e5c10008 	strb	r0, [r1, #8]
    a6b4:	0a00000c 	beq	a6ec <console_insert_char+0x6c>
    a6b8:	e350001a 	cmp	r0, #26
    a6bc:	0a000003 	beq	a6d0 <console_insert_char+0x50>
    a6c0:	e59f0040 	ldr	r0, [pc, #64]	; a708 <console_insert_char+0x88>
    a6c4:	eb0006d3 	bl	c218 <wait_queue_wake>
    a6c8:	e3a00000 	mov	r0, #0
    a6cc:	e8bd8010 	pop	{r4, pc}
    a6d0:	e3052414 	movw	r2, #21524	; 0x5414
    a6d4:	e3402002 	movt	r2, #2
    a6d8:	e5923000 	ldr	r3, [r2]
    a6dc:	e16f3f13 	clz	r3, r3
    a6e0:	e1a032a3 	lsr	r3, r3, #5
    a6e4:	e5823000 	str	r3, [r2]
    a6e8:	eafffff4 	b	a6c0 <console_insert_char+0x40>
    a6ec:	e3003580 	movw	r3, #1408	; 0x580
    a6f0:	e3403003 	movt	r3, #3
    a6f4:	e5930000 	ldr	r0, [r3]
    a6f8:	eb0006d6 	bl	c258 <dump_saved_user_state>
    a6fc:	eaffffef 	b	a6c0 <console_insert_char+0x40>
    a700:	e3e00000 	mvn	r0, #0
    a704:	e12fff1e 	bx	lr
    a708:	0002851c 	andeq	r8, r2, ip, lsl r5

0000a70c <console_write>:
    a70c:	ea0000a0 	b	a994 <serial_write>

0000a710 <console_read>:
    a710:	e92d41f0 	push	{r4, r5, r6, r7, r8, lr}
    a714:	e3084414 	movw	r4, #33812	; 0x8414
    a718:	e3404002 	movt	r4, #2
    a71c:	e1a05000 	mov	r5, r0
    a720:	e1a06001 	mov	r6, r1
    a724:	e5942000 	ldr	r2, [r4]
    a728:	e5943004 	ldr	r3, [r4, #4]
    a72c:	e1520003 	cmp	r2, r3
    a730:	1a000008 	bne	a758 <console_read+0x48>
    a734:	e3007580 	movw	r7, #1408	; 0x580
    a738:	e2848f42 	add	r8, r4, #264	; 0x108
    a73c:	e3407003 	movt	r7, #3
    a740:	e5971000 	ldr	r1, [r7]
    a744:	e1a00008 	mov	r0, r8
    a748:	eb00069f 	bl	c1cc <wait_queue_add>
    a74c:	e1c420d0 	ldrd	r2, [r4]
    a750:	e1520003 	cmp	r2, r3
    a754:	0afffff9 	beq	a740 <console_read+0x30>
    a758:	e3560000 	cmp	r6, #0
    a75c:	0a000012 	beq	a7ac <console_read+0x9c>
    a760:	e5943004 	ldr	r3, [r4, #4]
    a764:	e246e001 	sub	lr, r6, #1
    a768:	e085e00e 	add	lr, r5, lr
    a76c:	e2450001 	sub	r0, r5, #1
    a770:	e3a05000 	mov	r5, #0
    a774:	e1530002 	cmp	r3, r2
    a778:	e0841003 	add	r1, r4, r3
    a77c:	03a0c000 	moveq	ip, #0
    a780:	0a000004 	beq	a798 <console_read+0x88>
    a784:	e5d1c008 	ldrb	ip, [r1, #8]
    a788:	e2833001 	add	r3, r3, #1
    a78c:	e35300ff 	cmp	r3, #255	; 0xff
    a790:	e3a05001 	mov	r5, #1
    a794:	83a03000 	movhi	r3, #0
    a798:	e5e0c001 	strb	ip, [r0, #1]!
    a79c:	e15e0000 	cmp	lr, r0
    a7a0:	1afffff3 	bne	a774 <console_read+0x64>
    a7a4:	e3550000 	cmp	r5, #0
    a7a8:	15843004 	strne	r3, [r4, #4]
    a7ac:	e1a00006 	mov	r0, r6
    a7b0:	e8bd81f0 	pop	{r4, r5, r6, r7, r8, pc}

0000a7b4 <led_init>:
    a7b4:	e92d4010 	push	{r4, lr}
    a7b8:	e3084528 	movw	r4, #34088	; 0x8528
    a7bc:	e3404002 	movt	r4, #2
    a7c0:	e3a03001 	mov	r3, #1
    a7c4:	e5843000 	str	r3, [r4]
    a7c8:	ebfff7db 	bl	873c <hardware_get_type>
    a7cc:	e3500002 	cmp	r0, #2
    a7d0:	1a000011 	bne	a81c <led_init+0x68>
    a7d4:	e3a03010 	mov	r3, #16
    a7d8:	e3054404 	movw	r4, #21508	; 0x5404
    a7dc:	e3404002 	movt	r4, #2
    a7e0:	e1a00003 	mov	r0, r3
    a7e4:	e3a02001 	mov	r2, #1
    a7e8:	e5842004 	str	r2, [r4, #4]
    a7ec:	e5843000 	str	r3, [r4]
    a7f0:	e30d1818 	movw	r1, #55320	; 0xd818
    a7f4:	e3401000 	movt	r1, #0
    a7f8:	eb0000d1 	bl	ab44 <gpio_request>
    a7fc:	e5940000 	ldr	r0, [r4]
    a800:	eb000132 	bl	acd0 <gpio_direction_output>
    a804:	e5941000 	ldr	r1, [r4]
    a808:	e30d0820 	movw	r0, #55328	; 0xd820
    a80c:	e3400000 	movt	r0, #0
    a810:	eb0008a6 	bl	cab0 <printk>
    a814:	e3a00000 	mov	r0, #0
    a818:	e8bd8010 	pop	{r4, pc}
    a81c:	ebfff7c6 	bl	873c <hardware_get_type>
    a820:	e3500001 	cmp	r0, #1
    a824:	0affffea 	beq	a7d4 <led_init+0x20>
    a828:	ebfff7c3 	bl	873c <hardware_get_type>
    a82c:	e3500004 	cmp	r0, #4
    a830:	1a000007 	bne	a854 <led_init+0xa0>
    a834:	e3054404 	movw	r4, #21508	; 0x5404
    a838:	e3a0302f 	mov	r3, #47	; 0x2f
    a83c:	e3404002 	movt	r4, #2
    a840:	e3a02000 	mov	r2, #0
    a844:	e1a00003 	mov	r0, r3
    a848:	e5842004 	str	r2, [r4, #4]
    a84c:	e5843000 	str	r3, [r4]
    a850:	eaffffe6 	b	a7f0 <led_init+0x3c>
    a854:	ebfff7b8 	bl	873c <hardware_get_type>
    a858:	e3500003 	cmp	r0, #3
    a85c:	0afffff4 	beq	a834 <led_init+0x80>
    a860:	ebfff7b5 	bl	873c <hardware_get_type>
    a864:	e3500007 	cmp	r0, #7
    a868:	0afffff1 	beq	a834 <led_init+0x80>
    a86c:	ebfff7b2 	bl	873c <hardware_get_type>
    a870:	e3500009 	cmp	r0, #9
    a874:	1a000007 	bne	a898 <led_init+0xe4>
    a878:	e3054404 	movw	r4, #21508	; 0x5404
    a87c:	e3a03012 	mov	r3, #18
    a880:	e3404002 	movt	r4, #2
    a884:	e3a02000 	mov	r2, #0
    a888:	e1a00003 	mov	r0, r3
    a88c:	e5842004 	str	r2, [r4, #4]
    a890:	e5843000 	str	r3, [r4]
    a894:	eaffffd5 	b	a7f0 <led_init+0x3c>
    a898:	e30d07ec 	movw	r0, #55276	; 0xd7ec
    a89c:	e3400000 	movt	r0, #0
    a8a0:	eb000882 	bl	cab0 <printk>
    a8a4:	e3a03000 	mov	r3, #0
    a8a8:	e3a00013 	mov	r0, #19
    a8ac:	e5843000 	str	r3, [r4]
    a8b0:	e8bd8010 	pop	{r4, pc}

0000a8b4 <led_on>:
    a8b4:	e3083528 	movw	r3, #34088	; 0x8528
    a8b8:	e3403002 	movt	r3, #2
    a8bc:	e5933000 	ldr	r3, [r3]
    a8c0:	e3530000 	cmp	r3, #0
    a8c4:	0a000009 	beq	a8f0 <led_on+0x3c>
    a8c8:	e3053404 	movw	r3, #21508	; 0x5404
    a8cc:	e3403002 	movt	r3, #2
    a8d0:	e92d4010 	push	{r4, lr}
    a8d4:	e8930005 	ldm	r3, {r0, r2}
    a8d8:	e3520000 	cmp	r2, #0
    a8dc:	13a01000 	movne	r1, #0
    a8e0:	03a01001 	moveq	r1, #1
    a8e4:	eb000132 	bl	adb4 <gpio_set_value>
    a8e8:	e3a00000 	mov	r0, #0
    a8ec:	e8bd8010 	pop	{r4, pc}
    a8f0:	e3a00000 	mov	r0, #0
    a8f4:	e12fff1e 	bx	lr

0000a8f8 <led_off>:
    a8f8:	e3083528 	movw	r3, #34088	; 0x8528
    a8fc:	e3403002 	movt	r3, #2
    a900:	e5933000 	ldr	r3, [r3]
    a904:	e3530000 	cmp	r3, #0
    a908:	0a000008 	beq	a930 <led_off+0x38>
    a90c:	e3053404 	movw	r3, #21508	; 0x5404
    a910:	e3403002 	movt	r3, #2
    a914:	e92d4010 	push	{r4, lr}
    a918:	e1c300d0 	ldrd	r0, [r3]
    a91c:	e3510000 	cmp	r1, #0
    a920:	13a01001 	movne	r1, #1
    a924:	eb000122 	bl	adb4 <gpio_set_value>
    a928:	e3a00000 	mov	r0, #0
    a92c:	e8bd8010 	pop	{r4, pc}
    a930:	e3a00000 	mov	r0, #0
    a934:	e12fff1e 	bx	lr

0000a938 <serial_init>:
    a938:	e3500001 	cmp	r0, #1
    a93c:	e92d4010 	push	{r4, lr}
    a940:	0a000007 	beq	a964 <serial_init+0x2c>
    a944:	e3500002 	cmp	r0, #2
    a948:	0a00000d 	beq	a984 <serial_init+0x4c>
    a94c:	e3a02001 	mov	r2, #1
    a950:	e3a00000 	mov	r0, #0
    a954:	e308352c 	movw	r3, #34092	; 0x852c
    a958:	e3403002 	movt	r3, #2
    a95c:	e5832000 	str	r2, [r3]
    a960:	e8bd8010 	pop	{r4, pc}
    a964:	e308052c 	movw	r0, #34092	; 0x852c
    a968:	e3400002 	movt	r0, #2
    a96c:	eb0001bb 	bl	b060 <pl011_uart_init>
    a970:	e3500000 	cmp	r0, #0
    a974:	0afffff4 	beq	a94c <serial_init+0x14>
    a978:	e3a02000 	mov	r2, #0
    a97c:	e3e00012 	mvn	r0, #18
    a980:	eafffff3 	b	a954 <serial_init+0x1c>
    a984:	e308052c 	movw	r0, #34092	; 0x852c
    a988:	e3400002 	movt	r0, #2
    a98c:	eb0002b0 	bl	b454 <mini_uart_init>
    a990:	eafffff6 	b	a970 <serial_init+0x38>

0000a994 <serial_write>:
    a994:	e92d41f0 	push	{r4, r5, r6, r7, r8, lr}
    a998:	e308552c 	movw	r5, #34092	; 0x852c
    a99c:	e3405002 	movt	r5, #2
    a9a0:	e5953000 	ldr	r3, [r5]
    a9a4:	e3530000 	cmp	r3, #0
    a9a8:	01a07003 	moveq	r7, r3
    a9ac:	0a000010 	beq	a9f4 <serial_write+0x60>
    a9b0:	e3510000 	cmp	r1, #0
    a9b4:	e1a07001 	mov	r7, r1
    a9b8:	0a00000d 	beq	a9f4 <serial_write+0x60>
    a9bc:	e0806001 	add	r6, r0, r1
    a9c0:	e2404001 	sub	r4, r0, #1
    a9c4:	e2466001 	sub	r6, r6, #1
    a9c8:	e5f40001 	ldrb	r0, [r4, #1]!
    a9cc:	e350000a 	cmp	r0, #10
    a9d0:	1a000003 	bne	a9e4 <serial_write+0x50>
    a9d4:	e5953018 	ldr	r3, [r5, #24]
    a9d8:	e3a0000d 	mov	r0, #13
    a9dc:	e12fff33 	blx	r3
    a9e0:	e5d40000 	ldrb	r0, [r4]
    a9e4:	e5953018 	ldr	r3, [r5, #24]
    a9e8:	e12fff33 	blx	r3
    a9ec:	e1540006 	cmp	r4, r6
    a9f0:	1afffff4 	bne	a9c8 <serial_write+0x34>
    a9f4:	e1a00007 	mov	r0, r7
    a9f8:	e8bd81f0 	pop	{r4, r5, r6, r7, r8, pc}

0000a9fc <serial_interrupt_handler>:
    a9fc:	e308352c 	movw	r3, #34092	; 0x852c
    aa00:	e3403002 	movt	r3, #2
    aa04:	e5933024 	ldr	r3, [r3, #36]	; 0x24
    aa08:	e12fff13 	bx	r3

0000aa0c <serial_enable_interrupts>:
    aa0c:	e308352c 	movw	r3, #34092	; 0x852c
    aa10:	e3403002 	movt	r3, #2
    aa14:	e5933014 	ldr	r3, [r3, #20]
    aa18:	e12fff13 	bx	r3

0000aa1c <timer_init>:
    aa1c:	e92d4010 	push	{r4, lr}
    aa20:	e30b0408 	movw	r0, #46088	; 0xb408
    aa24:	ebfffeed 	bl	a5e0 <bcm2835_read>
    aa28:	e1a01000 	mov	r1, r0
    aa2c:	e30b0408 	movw	r0, #46088	; 0xb408
    aa30:	e3c110a0 	bic	r1, r1, #160	; 0xa0
    aa34:	ebfffee3 	bl	a5c8 <bcm2835_write>
    aa38:	e3a010f9 	mov	r1, #249	; 0xf9
    aa3c:	e30b041c 	movw	r0, #46108	; 0xb41c
    aa40:	ebfffee0 	bl	a5c8 <bcm2835_write>
    aa44:	e3a0103d 	mov	r1, #61	; 0x3d
    aa48:	e3a00b2d 	mov	r0, #46080	; 0xb400
    aa4c:	ebfffedd 	bl	a5c8 <bcm2835_write>
    aa50:	e3a010aa 	mov	r1, #170	; 0xaa
    aa54:	e30b0408 	movw	r0, #46088	; 0xb408
    aa58:	ebfffeda 	bl	a5c8 <bcm2835_write>
    aa5c:	e3a01001 	mov	r1, #1
    aa60:	e30b0218 	movw	r0, #45592	; 0xb218
    aa64:	ebfffed7 	bl	a5c8 <bcm2835_write>
    aa68:	e3a00000 	mov	r0, #0
    aa6c:	e8bd8010 	pop	{r4, pc}

0000aa70 <timer_interrupt_handler>:
    aa70:	e92d4010 	push	{r4, lr}
    aa74:	e3084554 	movw	r4, #34132	; 0x8554
    aa78:	e3404002 	movt	r4, #2
    aa7c:	e3a01001 	mov	r1, #1
    aa80:	e30b040c 	movw	r0, #46092	; 0xb40c
    aa84:	ebfffecf 	bl	a5c8 <bcm2835_write>
    aa88:	e5943000 	ldr	r3, [r4]
    aa8c:	e5942004 	ldr	r2, [r4, #4]
    aa90:	e2833001 	add	r3, r3, #1
    aa94:	e5843000 	str	r3, [r4]
    aa98:	e3520000 	cmp	r2, #0
    aa9c:	11530002 	cmpne	r3, r2
    aaa0:	8a000014 	bhi	aaf8 <timer_interrupt_handler+0x88>
    aaa4:	e305340c 	movw	r3, #21516	; 0x540c
    aaa8:	e3403002 	movt	r3, #2
    aaac:	e5933000 	ldr	r3, [r3]
    aab0:	e3530000 	cmp	r3, #0
    aab4:	08bd8010 	popeq	{r4, pc}
    aab8:	e594300c 	ldr	r3, [r4, #12]
    aabc:	e2833001 	add	r3, r3, #1
    aac0:	e584300c 	str	r3, [r4, #12]
    aac4:	e3530020 	cmp	r3, #32
    aac8:	0a000005 	beq	aae4 <timer_interrupt_handler+0x74>
    aacc:	e3530040 	cmp	r3, #64	; 0x40
    aad0:	18bd8010 	popne	{r4, pc}
    aad4:	ebffff76 	bl	a8b4 <led_on>
    aad8:	e3a03000 	mov	r3, #0
    aadc:	e584300c 	str	r3, [r4, #12]
    aae0:	e8bd8010 	pop	{r4, pc}
    aae4:	ebffff83 	bl	a8f8 <led_off>
    aae8:	e594300c 	ldr	r3, [r4, #12]
    aaec:	e3530040 	cmp	r3, #64	; 0x40
    aaf0:	18bd8010 	popne	{r4, pc}
    aaf4:	eafffff6 	b	aad4 <timer_interrupt_handler+0x64>
    aaf8:	e3a03000 	mov	r3, #0
    aafc:	e2840008 	add	r0, r4, #8
    ab00:	e5843004 	str	r3, [r4, #4]
    ab04:	eb0005c3 	bl	c218 <wait_queue_wake>
    ab08:	eaffffe5 	b	aaa4 <timer_interrupt_handler+0x34>

0000ab0c <timer_sleep_until>:
    ab0c:	e3083554 	movw	r3, #34132	; 0x8554
    ab10:	e3403002 	movt	r3, #2
    ab14:	e5932004 	ldr	r2, [r3, #4]
    ab18:	e3520000 	cmp	r2, #0
    ab1c:	0a000001 	beq	ab28 <timer_sleep_until+0x1c>
    ab20:	e1520000 	cmp	r2, r0
    ab24:	9a000000 	bls	ab2c <timer_sleep_until+0x20>
    ab28:	e5830004 	str	r0, [r3, #4]
    ab2c:	e59f000c 	ldr	r0, [pc, #12]	; ab40 <timer_sleep_until+0x34>
    ab30:	e3003580 	movw	r3, #1408	; 0x580
    ab34:	e3403003 	movt	r3, #3
    ab38:	e5931000 	ldr	r1, [r3]
    ab3c:	ea0005a2 	b	c1cc <wait_queue_add>
    ab40:	0002855c 	andeq	r8, r2, ip, asr r5

0000ab44 <gpio_request>:
    ab44:	e3500036 	cmp	r0, #54	; 0x36
    ab48:	e1a03000 	mov	r3, r0
    ab4c:	e92d41f0 	push	{r4, r5, r6, r7, r8, lr}
    ab50:	8a000019 	bhi	abbc <gpio_request+0x78>
    ab54:	e308e568 	movw	lr, #34152	; 0x8568
    ab58:	e2608020 	rsb	r8, r0, #32
    ab5c:	e340e002 	movt	lr, #2
    ab60:	e240c020 	sub	ip, r0, #32
    ab64:	e3a05000 	mov	r5, #0
    ab68:	e1a02001 	mov	r2, r1
    ab6c:	e1ce60d0 	ldrd	r6, [lr]
    ab70:	e1a01005 	mov	r1, r5
    ab74:	e1a04036 	lsr	r4, r6, r0
    ab78:	e1844817 	orr	r4, r4, r7, lsl r8
    ab7c:	e1844c37 	orr	r4, r4, r7, lsr ip
    ab80:	e2040001 	and	r0, r4, #1
    ab84:	e3a04001 	mov	r4, #1
    ab88:	e1901001 	orrs	r1, r0, r1
    ab8c:	1a000010 	bne	abd4 <gpio_request+0x90>
    ab90:	e1a0cc14 	lsl	ip, r4, ip
    ab94:	e30d086c 	movw	r0, #55404	; 0xd86c
    ab98:	e18cc834 	orr	ip, ip, r4, lsr r8
    ab9c:	e1a01003 	mov	r1, r3
    aba0:	e18cc007 	orr	ip, ip, r7
    aba4:	e1863314 	orr	r3, r6, r4, lsl r3
    aba8:	e3400000 	movt	r0, #0
    abac:	e88e1008 	stm	lr, {r3, ip}
    abb0:	eb0007be 	bl	cab0 <printk>
    abb4:	e1a00005 	mov	r0, r5
    abb8:	e8bd81f0 	pop	{r4, r5, r6, r7, r8, pc}
    abbc:	e30d0844 	movw	r0, #55364	; 0xd844
    abc0:	e1a01003 	mov	r1, r3
    abc4:	e3400000 	movt	r0, #0
    abc8:	eb0007b8 	bl	cab0 <printk>
    abcc:	e3e00000 	mvn	r0, #0
    abd0:	e8bd81f0 	pop	{r4, r5, r6, r7, r8, pc}
    abd4:	e30d0854 	movw	r0, #55380	; 0xd854
    abd8:	e1a01003 	mov	r1, r3
    abdc:	e3400000 	movt	r0, #0
    abe0:	eb0007b2 	bl	cab0 <printk>
    abe4:	e3e00000 	mvn	r0, #0
    abe8:	e8bd81f0 	pop	{r4, r5, r6, r7, r8, pc}

0000abec <gpio_free>:
    abec:	e3500036 	cmp	r0, #54	; 0x36
    abf0:	e1a01000 	mov	r1, r0
    abf4:	e92d4010 	push	{r4, lr}
    abf8:	8a000011 	bhi	ac44 <gpio_free+0x58>
    abfc:	e3083568 	movw	r3, #34152	; 0x8568
    ac00:	e3a0c001 	mov	ip, #1
    ac04:	e3403002 	movt	r3, #2
    ac08:	e2402020 	sub	r2, r0, #32
    ac0c:	e2600020 	rsb	r0, r0, #32
    ac10:	e593e000 	ldr	lr, [r3]
    ac14:	e1a0221c 	lsl	r2, ip, r2
    ac18:	e1cee11c 	bic	lr, lr, ip, lsl r1
    ac1c:	e182203c 	orr	r2, r2, ip, lsr r0
    ac20:	e30d0888 	movw	r0, #55432	; 0xd888
    ac24:	e593c004 	ldr	ip, [r3, #4]
    ac28:	e3400000 	movt	r0, #0
    ac2c:	e1cc2002 	bic	r2, ip, r2
    ac30:	e583e000 	str	lr, [r3]
    ac34:	e5832004 	str	r2, [r3, #4]
    ac38:	eb00079c 	bl	cab0 <printk>
    ac3c:	e3a00000 	mov	r0, #0
    ac40:	e8bd8010 	pop	{r4, pc}
    ac44:	e30d0844 	movw	r0, #55364	; 0xd844
    ac48:	e3400000 	movt	r0, #0
    ac4c:	eb000797 	bl	cab0 <printk>
    ac50:	e3e00000 	mvn	r0, #0
    ac54:	e8bd8010 	pop	{r4, pc}

0000ac58 <gpio_direction_input>:
    ac58:	e3500036 	cmp	r0, #54	; 0x36
    ac5c:	e92d4070 	push	{r4, r5, r6, lr}
    ac60:	e1a04000 	mov	r4, r0
    ac64:	ca000013 	bgt	acb8 <gpio_direction_input+0x60>
    ac68:	e3065667 	movw	r5, #26215	; 0x6667
    ac6c:	e3465666 	movt	r5, #26214	; 0x6666
    ac70:	e0c13095 	smull	r3, r1, r5, r0
    ac74:	e1a05fc0 	asr	r5, r0, #31
    ac78:	e0655141 	rsb	r5, r5, r1, asr #2
    ac7c:	e1a06105 	lsl	r6, r5, #2
    ac80:	e2866602 	add	r6, r6, #2097152	; 0x200000
    ac84:	e1a00006 	mov	r0, r6
    ac88:	ebfffe54 	bl	a5e0 <bcm2835_read>
    ac8c:	e3a0100a 	mov	r1, #10
    ac90:	e1a03000 	mov	r3, r0
    ac94:	e0644591 	mls	r4, r1, r5, r4
    ac98:	e3a05003 	mov	r5, #3
    ac9c:	e3a01007 	mov	r1, #7
    aca0:	e0040495 	mul	r4, r5, r4
    aca4:	e1a00006 	mov	r0, r6
    aca8:	e1c31411 	bic	r1, r3, r1, lsl r4
    acac:	ebfffe45 	bl	a5c8 <bcm2835_write>
    acb0:	e3a00000 	mov	r0, #0
    acb4:	e8bd8070 	pop	{r4, r5, r6, pc}
    acb8:	e30d0844 	movw	r0, #55364	; 0xd844
    acbc:	e1a01004 	mov	r1, r4
    acc0:	e3400000 	movt	r0, #0
    acc4:	eb000779 	bl	cab0 <printk>
    acc8:	e3e00000 	mvn	r0, #0
    accc:	e8bd8070 	pop	{r4, r5, r6, pc}

0000acd0 <gpio_direction_output>:
    acd0:	e3500036 	cmp	r0, #54	; 0x36
    acd4:	e1a01000 	mov	r1, r0
    acd8:	e92d4070 	push	{r4, r5, r6, lr}
    acdc:	ca000015 	bgt	ad38 <gpio_direction_output+0x68>
    ace0:	e3064667 	movw	r4, #26215	; 0x6667
    ace4:	e3a0000a 	mov	r0, #10
    ace8:	e3464666 	movt	r4, #26214	; 0x6666
    acec:	e3a05003 	mov	r5, #3
    acf0:	e0c32194 	smull	r2, r3, r4, r1
    acf4:	e1a04fc1 	asr	r4, r1, #31
    acf8:	e0644143 	rsb	r4, r4, r3, asr #2
    acfc:	e0611490 	mls	r1, r0, r4, r1
    ad00:	e1a04104 	lsl	r4, r4, #2
    ad04:	e2844602 	add	r4, r4, #2097152	; 0x200000
    ad08:	e1a00004 	mov	r0, r4
    ad0c:	e0050195 	mul	r5, r5, r1
    ad10:	ebfffe32 	bl	a5e0 <bcm2835_read>
    ad14:	e3a02007 	mov	r2, #7
    ad18:	e1a03000 	mov	r3, r0
    ad1c:	e3a01001 	mov	r1, #1
    ad20:	e1a00004 	mov	r0, r4
    ad24:	e1c33512 	bic	r3, r3, r2, lsl r5
    ad28:	e1831511 	orr	r1, r3, r1, lsl r5
    ad2c:	ebfffe25 	bl	a5c8 <bcm2835_write>
    ad30:	e3a00000 	mov	r0, #0
    ad34:	e8bd8070 	pop	{r4, r5, r6, pc}
    ad38:	e30d0844 	movw	r0, #55364	; 0xd844
    ad3c:	e3400000 	movt	r0, #0
    ad40:	eb00075a 	bl	cab0 <printk>
    ad44:	e3e00000 	mvn	r0, #0
    ad48:	e8bd8070 	pop	{r4, r5, r6, pc}

0000ad4c <gpio_to_irq>:
    ad4c:	e3a00031 	mov	r0, #49	; 0x31
    ad50:	e12fff1e 	bx	lr

0000ad54 <gpio_get_value>:
    ad54:	e3500036 	cmp	r0, #54	; 0x36
    ad58:	e92d4010 	push	{r4, lr}
    ad5c:	e1a04000 	mov	r4, r0
    ad60:	ca00000d 	bgt	ad9c <gpio_get_value+0x48>
    ad64:	e3540000 	cmp	r4, #0
    ad68:	e280001f 	add	r0, r0, #31
    ad6c:	a1a00004 	movge	r0, r4
    ad70:	e204401f 	and	r4, r4, #31
    ad74:	e1a002c0 	asr	r0, r0, #5
    ad78:	e1a00100 	lsl	r0, r0, #2
    ad7c:	e2800602 	add	r0, r0, #2097152	; 0x200000
    ad80:	e2800034 	add	r0, r0, #52	; 0x34
    ad84:	ebfffe15 	bl	a5e0 <bcm2835_read>
    ad88:	e3a03001 	mov	r3, #1
    ad8c:	e0103413 	ands	r3, r0, r3, lsl r4
    ad90:	13a00001 	movne	r0, #1
    ad94:	03a00000 	moveq	r0, #0
    ad98:	e8bd8010 	pop	{r4, pc}
    ad9c:	e30d0898 	movw	r0, #55448	; 0xd898
    ada0:	e1a01004 	mov	r1, r4
    ada4:	e3400000 	movt	r0, #0
    ada8:	eb000740 	bl	cab0 <printk>
    adac:	e3e00000 	mvn	r0, #0
    adb0:	e8bd8010 	pop	{r4, pc}

0000adb4 <gpio_set_value>:
    adb4:	e3500036 	cmp	r0, #54	; 0x36
    adb8:	e1a03000 	mov	r3, r0
    adbc:	e92d4010 	push	{r4, lr}
    adc0:	ca00001d 	bgt	ae3c <gpio_set_value+0x88>
    adc4:	e3530000 	cmp	r3, #0
    adc8:	e280001f 	add	r0, r0, #31
    adcc:	e203c01f 	and	ip, r3, #31
    add0:	b1a03000 	movlt	r3, r0
    add4:	e3a02001 	mov	r2, #1
    add8:	e3510000 	cmp	r1, #0
    addc:	e1a032c3 	asr	r3, r3, #5
    ade0:	e1a04001 	mov	r4, r1
    ade4:	e1a02c12 	lsl	r2, r2, ip
    ade8:	e1a03103 	lsl	r3, r3, #2
    adec:	0a00000c 	beq	ae24 <gpio_set_value+0x70>
    adf0:	e3510001 	cmp	r1, #1
    adf4:	0a000004 	beq	ae0c <gpio_set_value+0x58>
    adf8:	e30d08a8 	movw	r0, #55464	; 0xd8a8
    adfc:	e3400000 	movt	r0, #0
    ae00:	eb00072a 	bl	cab0 <printk>
    ae04:	e3a00000 	mov	r0, #0
    ae08:	e8bd8010 	pop	{r4, pc}
    ae0c:	e2830602 	add	r0, r3, #2097152	; 0x200000
    ae10:	e1a01002 	mov	r1, r2
    ae14:	e280001c 	add	r0, r0, #28
    ae18:	ebfffdea 	bl	a5c8 <bcm2835_write>
    ae1c:	e3a00000 	mov	r0, #0
    ae20:	e8bd8010 	pop	{r4, pc}
    ae24:	e2830602 	add	r0, r3, #2097152	; 0x200000
    ae28:	e1a01002 	mov	r1, r2
    ae2c:	e2800028 	add	r0, r0, #40	; 0x28
    ae30:	ebfffde4 	bl	a5c8 <bcm2835_write>
    ae34:	e1a00004 	mov	r0, r4
    ae38:	e8bd8010 	pop	{r4, pc}
    ae3c:	e30d0898 	movw	r0, #55448	; 0xd898
    ae40:	e1a01003 	mov	r1, r3
    ae44:	e3400000 	movt	r0, #0
    ae48:	eb000718 	bl	cab0 <printk>
    ae4c:	e3e00000 	mvn	r0, #0
    ae50:	e8bd8010 	pop	{r4, pc}

0000ae54 <gpio_set_falling>:
    ae54:	e3500036 	cmp	r0, #54	; 0x36
    ae58:	e92d4070 	push	{r4, r5, r6, lr}
    ae5c:	e1a05000 	mov	r5, r0
    ae60:	ca000010 	bgt	aea8 <gpio_set_falling+0x54>
    ae64:	e3500000 	cmp	r0, #0
    ae68:	e280401f 	add	r4, r0, #31
    ae6c:	a1a04000 	movge	r4, r0
    ae70:	e205501f 	and	r5, r5, #31
    ae74:	e1a042c4 	asr	r4, r4, #5
    ae78:	e1a04104 	lsl	r4, r4, #2
    ae7c:	e2844602 	add	r4, r4, #2097152	; 0x200000
    ae80:	e2844058 	add	r4, r4, #88	; 0x58
    ae84:	e1a00004 	mov	r0, r4
    ae88:	ebfffdd4 	bl	a5e0 <bcm2835_read>
    ae8c:	e3a01001 	mov	r1, #1
    ae90:	e1a03000 	mov	r3, r0
    ae94:	e1a00004 	mov	r0, r4
    ae98:	e1831511 	orr	r1, r3, r1, lsl r5
    ae9c:	ebfffdc9 	bl	a5c8 <bcm2835_write>
    aea0:	e3a00000 	mov	r0, #0
    aea4:	e8bd8070 	pop	{r4, r5, r6, pc}
    aea8:	e30d0898 	movw	r0, #55448	; 0xd898
    aeac:	e1a01005 	mov	r1, r5
    aeb0:	e3400000 	movt	r0, #0
    aeb4:	eb0006fd 	bl	cab0 <printk>
    aeb8:	e3e00000 	mvn	r0, #0
    aebc:	e8bd8070 	pop	{r4, r5, r6, pc}

0000aec0 <gpio_clear_interrupt>:
    aec0:	e3500036 	cmp	r0, #54	; 0x36
    aec4:	e1a03000 	mov	r3, r0
    aec8:	e92d4010 	push	{r4, lr}
    aecc:	ca00000c 	bgt	af04 <gpio_clear_interrupt+0x44>
    aed0:	e3530000 	cmp	r3, #0
    aed4:	e280001f 	add	r0, r0, #31
    aed8:	e203201f 	and	r2, r3, #31
    aedc:	b1a03000 	movlt	r3, r0
    aee0:	e3a01001 	mov	r1, #1
    aee4:	e1a032c3 	asr	r3, r3, #5
    aee8:	e1a01211 	lsl	r1, r1, r2
    aeec:	e1a00103 	lsl	r0, r3, #2
    aef0:	e2800602 	add	r0, r0, #2097152	; 0x200000
    aef4:	e2800040 	add	r0, r0, #64	; 0x40
    aef8:	ebfffdb2 	bl	a5c8 <bcm2835_write>
    aefc:	e3a00000 	mov	r0, #0
    af00:	e8bd8010 	pop	{r4, pc}
    af04:	e30d0898 	movw	r0, #55448	; 0xd898
    af08:	e1a01003 	mov	r1, r3
    af0c:	e3400000 	movt	r0, #0
    af10:	eb0006e6 	bl	cab0 <printk>
    af14:	e3e00000 	mvn	r0, #0
    af18:	e8bd8010 	pop	{r4, pc}

0000af1c <pl011_uart_putc>:
    af1c:	e92d4070 	push	{r4, r5, r6, lr}
    af20:	e3014018 	movw	r4, #4120	; 0x1018
    af24:	e3404020 	movt	r4, #32
    af28:	e1a05000 	mov	r5, r0
    af2c:	e1a00004 	mov	r0, r4
    af30:	ebfffdaa 	bl	a5e0 <bcm2835_read>
    af34:	e3100020 	tst	r0, #32
    af38:	1afffffb 	bne	af2c <pl011_uart_putc+0x10>
    af3c:	e3a00a01 	mov	r0, #4096	; 0x1000
    af40:	e1a01005 	mov	r1, r5
    af44:	e3400020 	movt	r0, #32
    af48:	e8bd4070 	pop	{r4, r5, r6, lr}
    af4c:	eafffd9d 	b	a5c8 <bcm2835_write>

0000af50 <pl011_uart_getc>:
    af50:	e92d4010 	push	{r4, lr}
    af54:	e3014018 	movw	r4, #4120	; 0x1018
    af58:	e3404020 	movt	r4, #32
    af5c:	e1a00004 	mov	r0, r4
    af60:	ebfffd9e 	bl	a5e0 <bcm2835_read>
    af64:	e3100010 	tst	r0, #16
    af68:	1afffffb 	bne	af5c <pl011_uart_getc+0xc>
    af6c:	e3a00a01 	mov	r0, #4096	; 0x1000
    af70:	e8bd4010 	pop	{r4, lr}
    af74:	e3400020 	movt	r0, #32
    af78:	eafffd98 	b	a5e0 <bcm2835_read>

0000af7c <pl011_uart_getc_noblock>:
    af7c:	e3010018 	movw	r0, #4120	; 0x1018
    af80:	e3400020 	movt	r0, #32
    af84:	e92d4010 	push	{r4, lr}
    af88:	ebfffd94 	bl	a5e0 <bcm2835_read>
    af8c:	e3100010 	tst	r0, #16
    af90:	1a000004 	bne	afa8 <pl011_uart_getc_noblock+0x2c>
    af94:	e3a00a01 	mov	r0, #4096	; 0x1000
    af98:	e3400020 	movt	r0, #32
    af9c:	ebfffd8f 	bl	a5e0 <bcm2835_read>
    afa0:	e6ef0070 	uxtb	r0, r0
    afa4:	e8bd8010 	pop	{r4, pc}
    afa8:	e3e00000 	mvn	r0, #0
    afac:	e8bd8010 	pop	{r4, pc}

0000afb0 <pl011_uart_enable_interrupts>:
    afb0:	e92d4070 	push	{r4, r5, r6, lr}
    afb4:	e3010044 	movw	r0, #4164	; 0x1044
    afb8:	e3400020 	movt	r0, #32
    afbc:	e3015034 	movw	r5, #4148	; 0x1034
    afc0:	e3405020 	movt	r5, #32
    afc4:	e30017ff 	movw	r1, #2047	; 0x7ff
    afc8:	e3014038 	movw	r4, #4152	; 0x1038
    afcc:	ebfffd7d 	bl	a5c8 <bcm2835_write>
    afd0:	e3404020 	movt	r4, #32
    afd4:	e1a00005 	mov	r0, r5
    afd8:	ebfffd80 	bl	a5e0 <bcm2835_read>
    afdc:	e1a01000 	mov	r1, r0
    afe0:	e1a00005 	mov	r0, r5
    afe4:	e3c11038 	bic	r1, r1, #56	; 0x38
    afe8:	ebfffd76 	bl	a5c8 <bcm2835_write>
    afec:	e1a00004 	mov	r0, r4
    aff0:	ebfffd7a 	bl	a5e0 <bcm2835_read>
    aff4:	e1a01000 	mov	r1, r0
    aff8:	e30d08c0 	movw	r0, #55488	; 0xd8c0
    affc:	e3400000 	movt	r0, #0
    b000:	e3815040 	orr	r5, r1, #64	; 0x40
    b004:	eb0006a9 	bl	cab0 <printk>
    b008:	e30d08dc 	movw	r0, #55516	; 0xd8dc
    b00c:	e1a01005 	mov	r1, r5
    b010:	e3400000 	movt	r0, #0
    b014:	eb0006a5 	bl	cab0 <printk>
    b018:	e1a00004 	mov	r0, r4
    b01c:	e1a01005 	mov	r1, r5
    b020:	ebfffd68 	bl	a5c8 <bcm2835_write>
    b024:	e8bd4070 	pop	{r4, r5, r6, lr}
    b028:	e3a00039 	mov	r0, #57	; 0x39
    b02c:	eafff8af 	b	92f0 <irq_enable>

0000b030 <pl011_uart_interrupt_handler>:
    b030:	e92d4010 	push	{r4, lr}
    b034:	ea000000 	b	b03c <pl011_uart_interrupt_handler+0xc>
    b038:	ebfffd90 	bl	a680 <console_insert_char>
    b03c:	ebffffce 	bl	af7c <pl011_uart_getc_noblock>
    b040:	e3700001 	cmn	r0, #1
    b044:	1afffffb 	bne	b038 <pl011_uart_interrupt_handler+0x8>
    b048:	e3010044 	movw	r0, #4164	; 0x1044
    b04c:	e3a01040 	mov	r1, #64	; 0x40
    b050:	e3400020 	movt	r0, #32
    b054:	ebfffd5b 	bl	a5c8 <bcm2835_write>
    b058:	e3a00000 	mov	r0, #0
    b05c:	e8bd8010 	pop	{r4, pc}

0000b060 <pl011_uart_init>:
    b060:	e1a03000 	mov	r3, r0
    b064:	e3a02cc2 	mov	r2, #49664	; 0xc200
    b068:	e92d41f0 	push	{r4, r5, r6, r7, r8, lr}
    b06c:	e3a06008 	mov	r6, #8
    b070:	e3402001 	movt	r2, #1
    b074:	e3a07001 	mov	r7, #1
    b078:	e5802004 	str	r2, [r0, #4]
    b07c:	e30aefb0 	movw	lr, #44976	; 0xafb0
    b080:	e1c360f8 	strd	r6, [r3, #8]
    b084:	e340e000 	movt	lr, #0
    b088:	e30a0f1c 	movw	r0, #44828	; 0xaf1c
    b08c:	e3400000 	movt	r0, #0
    b090:	e30a1f50 	movw	r1, #44880	; 0xaf50
    b094:	e3401000 	movt	r1, #0
    b098:	e30acf7c 	movw	ip, #44924	; 0xaf7c
    b09c:	e340c000 	movt	ip, #0
    b0a0:	e30b2030 	movw	r2, #45104	; 0xb030
    b0a4:	e3402000 	movt	r2, #0
    b0a8:	e3016030 	movw	r6, #4144	; 0x1030
    b0ac:	e3406020 	movt	r6, #32
    b0b0:	e3a04000 	mov	r4, #0
    b0b4:	e583e014 	str	lr, [r3, #20]
    b0b8:	e3a07004 	mov	r7, #4
    b0bc:	e5830018 	str	r0, [r3, #24]
    b0c0:	e1a00006 	mov	r0, r6
    b0c4:	e583101c 	str	r1, [r3, #28]
    b0c8:	e1a01004 	mov	r1, r4
    b0cc:	e583c020 	str	ip, [r3, #32]
    b0d0:	e3a05096 	mov	r5, #150	; 0x96
    b0d4:	e5832024 	str	r2, [r3, #36]	; 0x24
    b0d8:	e5834010 	str	r4, [r3, #16]
    b0dc:	e3407020 	movt	r7, #32
    b0e0:	ebfffd38 	bl	a5c8 <bcm2835_write>
    b0e4:	e30d18f0 	movw	r1, #55536	; 0xd8f0
    b0e8:	e3a0000e 	mov	r0, #14
    b0ec:	e3401000 	movt	r1, #0
    b0f0:	ebfffe93 	bl	ab44 <gpio_request>
    b0f4:	e30d18f8 	movw	r1, #55544	; 0xd8f8
    b0f8:	e3a0000f 	mov	r0, #15
    b0fc:	e3401000 	movt	r1, #0
    b100:	ebfffe8f 	bl	ab44 <gpio_request>
    b104:	e1a00007 	mov	r0, r7
    b108:	ebfffd34 	bl	a5e0 <bcm2835_read>
    b10c:	e1a01000 	mov	r1, r0
    b110:	e1a00007 	mov	r0, r7
    b114:	e3c11a3f 	bic	r1, r1, #258048	; 0x3f000
    b118:	e3811909 	orr	r1, r1, #147456	; 0x24000
    b11c:	ebfffd29 	bl	a5c8 <bcm2835_write>
    b120:	e3a00094 	mov	r0, #148	; 0x94
    b124:	e1a01004 	mov	r1, r4
    b128:	e3400020 	movt	r0, #32
    b12c:	ebfffd25 	bl	a5c8 <bcm2835_write>
    b130:	e1a03005 	mov	r3, r5

0000b134 <__delay_218>:
    b134:	e2533001 	subs	r3, r3, #1
    b138:	1afffffd 	bne	b134 <__delay_218>
    b13c:	e3a07098 	mov	r7, #152	; 0x98
    b140:	e3a01903 	mov	r1, #49152	; 0xc000
    b144:	e3407020 	movt	r7, #32
    b148:	e1a00007 	mov	r0, r7
    b14c:	ebfffd1d 	bl	a5c8 <bcm2835_write>

0000b150 <__delay_224>:
    b150:	e2555001 	subs	r5, r5, #1
    b154:	1afffffd 	bne	b150 <__delay_224>
    b158:	e1a00007 	mov	r0, r7
    b15c:	e1a01004 	mov	r1, r4
    b160:	ebfffd18 	bl	a5c8 <bcm2835_write>
    b164:	e3010044 	movw	r0, #4164	; 0x1044
    b168:	e30017ff 	movw	r1, #2047	; 0x7ff
    b16c:	e3400020 	movt	r0, #32
    b170:	ebfffd14 	bl	a5c8 <bcm2835_write>
    b174:	e3010024 	movw	r0, #4132	; 0x1024
    b178:	e3a0101a 	mov	r1, #26
    b17c:	e3400020 	movt	r0, #32
    b180:	ebfffd10 	bl	a5c8 <bcm2835_write>
    b184:	e3010028 	movw	r0, #4136	; 0x1028
    b188:	e3a01003 	mov	r1, #3
    b18c:	e3400020 	movt	r0, #32
    b190:	ebfffd0c 	bl	a5c8 <bcm2835_write>
    b194:	e301002c 	movw	r0, #4140	; 0x102c
    b198:	e3a01070 	mov	r1, #112	; 0x70
    b19c:	e3400020 	movt	r0, #32
    b1a0:	ebfffd08 	bl	a5c8 <bcm2835_write>
    b1a4:	e3010038 	movw	r0, #4152	; 0x1038
    b1a8:	e1a01004 	mov	r1, r4
    b1ac:	e3400020 	movt	r0, #32
    b1b0:	ebfffd04 	bl	a5c8 <bcm2835_write>
    b1b4:	e1a00006 	mov	r0, r6
    b1b8:	e3001301 	movw	r1, #769	; 0x301
    b1bc:	ebfffd01 	bl	a5c8 <bcm2835_write>
    b1c0:	e1a00004 	mov	r0, r4
    b1c4:	e8bd81f0 	pop	{r4, r5, r6, r7, r8, pc}

0000b1c8 <pl011_uart_putc_extra>:
    b1c8:	e92d4070 	push	{r4, r5, r6, lr}
    b1cc:	e3014018 	movw	r4, #4120	; 0x1018
    b1d0:	e3404020 	movt	r4, #32
    b1d4:	e1a05000 	mov	r5, r0
    b1d8:	e1a00004 	mov	r0, r4
    b1dc:	ebfffcff 	bl	a5e0 <bcm2835_read>
    b1e0:	e3100020 	tst	r0, #32
    b1e4:	1afffffb 	bne	b1d8 <pl011_uart_putc_extra+0x10>
    b1e8:	e3a00a01 	mov	r0, #4096	; 0x1000
    b1ec:	e1a01005 	mov	r1, r5
    b1f0:	e3400020 	movt	r0, #32
    b1f4:	e8bd4070 	pop	{r4, r5, r6, lr}
    b1f8:	eafffcf2 	b	a5c8 <bcm2835_write>

0000b1fc <pl011_write>:
    b1fc:	e92d4070 	push	{r4, r5, r6, lr}
    b200:	e2516000 	subs	r6, r1, #0
    b204:	0a000006 	beq	b224 <pl011_write+0x28>
    b208:	e0805006 	add	r5, r0, r6
    b20c:	e2404001 	sub	r4, r0, #1
    b210:	e2455001 	sub	r5, r5, #1
    b214:	e5f40001 	ldrb	r0, [r4, #1]!
    b218:	ebffff3f 	bl	af1c <pl011_uart_putc>
    b21c:	e1540005 	cmp	r4, r5
    b220:	1afffffb 	bne	b214 <pl011_write+0x18>
    b224:	e1a00006 	mov	r0, r6
    b228:	e8bd8070 	pop	{r4, r5, r6, pc}

0000b22c <old_pl011_uart_init>:
    b22c:	e92d4070 	push	{r4, r5, r6, lr}
    b230:	e3015030 	movw	r5, #4144	; 0x1030
    b234:	e3405020 	movt	r5, #32
    b238:	e3a01000 	mov	r1, #0
    b23c:	e1a00005 	mov	r0, r5
    b240:	e3a04096 	mov	r4, #150	; 0x96
    b244:	ebfffcdf 	bl	a5c8 <bcm2835_write>
    b248:	e30d18f0 	movw	r1, #55536	; 0xd8f0
    b24c:	e3a0000e 	mov	r0, #14
    b250:	e3401000 	movt	r1, #0
    b254:	ebfffe3a 	bl	ab44 <gpio_request>
    b258:	e30d18f8 	movw	r1, #55544	; 0xd8f8
    b25c:	e3a0000f 	mov	r0, #15
    b260:	e3401000 	movt	r1, #0
    b264:	ebfffe36 	bl	ab44 <gpio_request>
    b268:	e3a00094 	mov	r0, #148	; 0x94
    b26c:	e3a01000 	mov	r1, #0
    b270:	e3400020 	movt	r0, #32
    b274:	ebfffcd3 	bl	a5c8 <bcm2835_write>
    b278:	e1a03004 	mov	r3, r4

0000b27c <__delay_344>:
    b27c:	e2533001 	subs	r3, r3, #1
    b280:	1afffffd 	bne	b27c <__delay_344>
    b284:	e3a06098 	mov	r6, #152	; 0x98
    b288:	e3a01903 	mov	r1, #49152	; 0xc000
    b28c:	e3406020 	movt	r6, #32
    b290:	e1a00006 	mov	r0, r6
    b294:	ebfffccb 	bl	a5c8 <bcm2835_write>

0000b298 <__delay_350>:
    b298:	e2544001 	subs	r4, r4, #1
    b29c:	1afffffd 	bne	b298 <__delay_350>
    b2a0:	e3a01000 	mov	r1, #0
    b2a4:	e1a00006 	mov	r0, r6
    b2a8:	ebfffcc6 	bl	a5c8 <bcm2835_write>
    b2ac:	e3010044 	movw	r0, #4164	; 0x1044
    b2b0:	e30017ff 	movw	r1, #2047	; 0x7ff
    b2b4:	e3400020 	movt	r0, #32
    b2b8:	ebfffcc2 	bl	a5c8 <bcm2835_write>
    b2bc:	e3010024 	movw	r0, #4132	; 0x1024
    b2c0:	e3a01001 	mov	r1, #1
    b2c4:	e3400020 	movt	r0, #32
    b2c8:	ebfffcbe 	bl	a5c8 <bcm2835_write>
    b2cc:	e3010028 	movw	r0, #4136	; 0x1028
    b2d0:	e3a01028 	mov	r1, #40	; 0x28
    b2d4:	e3400020 	movt	r0, #32
    b2d8:	ebfffcba 	bl	a5c8 <bcm2835_write>
    b2dc:	e301002c 	movw	r0, #4140	; 0x102c
    b2e0:	e3a01070 	mov	r1, #112	; 0x70
    b2e4:	e3400020 	movt	r0, #32
    b2e8:	ebfffcb6 	bl	a5c8 <bcm2835_write>
    b2ec:	e3010038 	movw	r0, #4152	; 0x1038
    b2f0:	e3a01000 	mov	r1, #0
    b2f4:	e3400020 	movt	r0, #32
    b2f8:	ebfffcb2 	bl	a5c8 <bcm2835_write>
    b2fc:	e1a00005 	mov	r0, r5
    b300:	e3001301 	movw	r1, #769	; 0x301
    b304:	ebfffcaf 	bl	a5c8 <bcm2835_write>
    b308:	e3a00000 	mov	r0, #0
    b30c:	e8bd8070 	pop	{r4, r5, r6, pc}

0000b310 <mini_uart_putc>:
    b310:	e92d4070 	push	{r4, r5, r6, lr}
    b314:	e3014018 	movw	r4, #4120	; 0x1018
    b318:	e3404020 	movt	r4, #32
    b31c:	e1a05000 	mov	r5, r0
    b320:	e1a00004 	mov	r0, r4
    b324:	ebfffcad 	bl	a5e0 <bcm2835_read>
    b328:	e3100020 	tst	r0, #32
    b32c:	1afffffb 	bne	b320 <mini_uart_putc+0x10>
    b330:	e3a00a01 	mov	r0, #4096	; 0x1000
    b334:	e1a01005 	mov	r1, r5
    b338:	e3400020 	movt	r0, #32
    b33c:	e8bd4070 	pop	{r4, r5, r6, lr}
    b340:	eafffca0 	b	a5c8 <bcm2835_write>

0000b344 <mini_uart_getc>:
    b344:	e92d4010 	push	{r4, lr}
    b348:	e3014018 	movw	r4, #4120	; 0x1018
    b34c:	e3404020 	movt	r4, #32
    b350:	e1a00004 	mov	r0, r4
    b354:	ebfffca1 	bl	a5e0 <bcm2835_read>
    b358:	e3100010 	tst	r0, #16
    b35c:	1afffffb 	bne	b350 <mini_uart_getc+0xc>
    b360:	e3a00a01 	mov	r0, #4096	; 0x1000
    b364:	e8bd4010 	pop	{r4, lr}
    b368:	e3400020 	movt	r0, #32
    b36c:	eafffc9b 	b	a5e0 <bcm2835_read>

0000b370 <mini_uart_getc_noblock>:
    b370:	e3010018 	movw	r0, #4120	; 0x1018
    b374:	e3400020 	movt	r0, #32
    b378:	e92d4010 	push	{r4, lr}
    b37c:	ebfffc97 	bl	a5e0 <bcm2835_read>
    b380:	e3100010 	tst	r0, #16
    b384:	1a000004 	bne	b39c <mini_uart_getc_noblock+0x2c>
    b388:	e3a00a01 	mov	r0, #4096	; 0x1000
    b38c:	e3400020 	movt	r0, #32
    b390:	ebfffc92 	bl	a5e0 <bcm2835_read>
    b394:	e6ef0070 	uxtb	r0, r0
    b398:	e8bd8010 	pop	{r4, pc}
    b39c:	e3e00000 	mvn	r0, #0
    b3a0:	e8bd8010 	pop	{r4, pc}

0000b3a4 <mini_uart_enable_interrupts>:
    b3a4:	e92d4070 	push	{r4, r5, r6, lr}
    b3a8:	e3010044 	movw	r0, #4164	; 0x1044
    b3ac:	e3400020 	movt	r0, #32
    b3b0:	e3015034 	movw	r5, #4148	; 0x1034
    b3b4:	e3405020 	movt	r5, #32
    b3b8:	e30017ff 	movw	r1, #2047	; 0x7ff
    b3bc:	e3014038 	movw	r4, #4152	; 0x1038
    b3c0:	ebfffc80 	bl	a5c8 <bcm2835_write>
    b3c4:	e3404020 	movt	r4, #32
    b3c8:	e1a00005 	mov	r0, r5
    b3cc:	ebfffc83 	bl	a5e0 <bcm2835_read>
    b3d0:	e1a01000 	mov	r1, r0
    b3d4:	e1a00005 	mov	r0, r5
    b3d8:	e3c11038 	bic	r1, r1, #56	; 0x38
    b3dc:	ebfffc79 	bl	a5c8 <bcm2835_write>
    b3e0:	e1a00004 	mov	r0, r4
    b3e4:	ebfffc7d 	bl	a5e0 <bcm2835_read>
    b3e8:	e1a01000 	mov	r1, r0
    b3ec:	e30d08c0 	movw	r0, #55488	; 0xd8c0
    b3f0:	e3400000 	movt	r0, #0
    b3f4:	e3815040 	orr	r5, r1, #64	; 0x40
    b3f8:	eb0005ac 	bl	cab0 <printk>
    b3fc:	e30d08dc 	movw	r0, #55516	; 0xd8dc
    b400:	e1a01005 	mov	r1, r5
    b404:	e3400000 	movt	r0, #0
    b408:	eb0005a8 	bl	cab0 <printk>
    b40c:	e1a00004 	mov	r0, r4
    b410:	e1a01005 	mov	r1, r5
    b414:	ebfffc6b 	bl	a5c8 <bcm2835_write>
    b418:	e8bd4070 	pop	{r4, r5, r6, lr}
    b41c:	e3a00039 	mov	r0, #57	; 0x39
    b420:	eafff7b2 	b	92f0 <irq_enable>

0000b424 <mini_uart_interrupt_handler>:
    b424:	e92d4010 	push	{r4, lr}
    b428:	ea000000 	b	b430 <mini_uart_interrupt_handler+0xc>
    b42c:	ebfffc93 	bl	a680 <console_insert_char>
    b430:	ebffffce 	bl	b370 <mini_uart_getc_noblock>
    b434:	e3700001 	cmn	r0, #1
    b438:	1afffffb 	bne	b42c <mini_uart_interrupt_handler+0x8>
    b43c:	e3010044 	movw	r0, #4164	; 0x1044
    b440:	e3a01040 	mov	r1, #64	; 0x40
    b444:	e3400020 	movt	r0, #32
    b448:	ebfffc5e 	bl	a5c8 <bcm2835_write>
    b44c:	e3a00000 	mov	r0, #0
    b450:	e8bd8010 	pop	{r4, pc}

0000b454 <mini_uart_init>:
    b454:	e3a02cc2 	mov	r2, #49664	; 0xc200
    b458:	e1a03000 	mov	r3, r0
    b45c:	e3402001 	movt	r2, #1
    b460:	e30b1344 	movw	r1, #45892	; 0xb344
    b464:	e92d41f0 	push	{r4, r5, r6, r7, r8, lr}
    b468:	e30bc370 	movw	ip, #45936	; 0xb370
    b46c:	e5802004 	str	r2, [r0, #4]
    b470:	e3a04008 	mov	r4, #8
    b474:	e340c000 	movt	ip, #0
    b478:	e30be3a4 	movw	lr, #45988	; 0xb3a4
    b47c:	e340e000 	movt	lr, #0
    b480:	e30b0310 	movw	r0, #45840	; 0xb310
    b484:	e5834008 	str	r4, [r3, #8]
    b488:	e30b2424 	movw	r2, #46116	; 0xb424
    b48c:	e3402000 	movt	r2, #0
    b490:	e3016030 	movw	r6, #4144	; 0x1030
    b494:	e3400000 	movt	r0, #0
    b498:	e3a04000 	mov	r4, #0
    b49c:	e3401000 	movt	r1, #0
    b4a0:	e3a08001 	mov	r8, #1
    b4a4:	e3406020 	movt	r6, #32
    b4a8:	e3a05096 	mov	r5, #150	; 0x96
    b4ac:	e583e014 	str	lr, [r3, #20]
    b4b0:	e5830018 	str	r0, [r3, #24]
    b4b4:	e1a00006 	mov	r0, r6
    b4b8:	e583101c 	str	r1, [r3, #28]
    b4bc:	e1a01004 	mov	r1, r4
    b4c0:	e583c020 	str	ip, [r3, #32]
    b4c4:	e5832024 	str	r2, [r3, #36]	; 0x24
    b4c8:	e583800c 	str	r8, [r3, #12]
    b4cc:	e5834010 	str	r4, [r3, #16]
    b4d0:	ebfffc3c 	bl	a5c8 <bcm2835_write>
    b4d4:	e30d18f0 	movw	r1, #55536	; 0xd8f0
    b4d8:	e3a0000e 	mov	r0, #14
    b4dc:	e3401000 	movt	r1, #0
    b4e0:	ebfffd97 	bl	ab44 <gpio_request>
    b4e4:	e30d18f8 	movw	r1, #55544	; 0xd8f8
    b4e8:	e3a0000f 	mov	r0, #15
    b4ec:	e3401000 	movt	r1, #0
    b4f0:	ebfffd93 	bl	ab44 <gpio_request>
    b4f4:	e3a00094 	mov	r0, #148	; 0x94
    b4f8:	e1a01004 	mov	r1, r4
    b4fc:	e3400020 	movt	r0, #32
    b500:	ebfffc30 	bl	a5c8 <bcm2835_write>
    b504:	e1a03005 	mov	r3, r5

0000b508 <__delay_208>:
    b508:	e2533001 	subs	r3, r3, #1
    b50c:	1afffffd 	bne	b508 <__delay_208>
    b510:	e3a07098 	mov	r7, #152	; 0x98
    b514:	e3a01903 	mov	r1, #49152	; 0xc000
    b518:	e3407020 	movt	r7, #32
    b51c:	e1a00007 	mov	r0, r7
    b520:	ebfffc28 	bl	a5c8 <bcm2835_write>

0000b524 <__delay_214>:
    b524:	e2555001 	subs	r5, r5, #1
    b528:	1afffffd 	bne	b524 <__delay_214>
    b52c:	e1a00007 	mov	r0, r7
    b530:	e1a01004 	mov	r1, r4
    b534:	ebfffc23 	bl	a5c8 <bcm2835_write>
    b538:	e3010044 	movw	r0, #4164	; 0x1044
    b53c:	e30017ff 	movw	r1, #2047	; 0x7ff
    b540:	e3400020 	movt	r0, #32
    b544:	ebfffc1f 	bl	a5c8 <bcm2835_write>
    b548:	e3010024 	movw	r0, #4132	; 0x1024
    b54c:	e1a01008 	mov	r1, r8
    b550:	e3400020 	movt	r0, #32
    b554:	ebfffc1b 	bl	a5c8 <bcm2835_write>
    b558:	e3010028 	movw	r0, #4136	; 0x1028
    b55c:	e3a01028 	mov	r1, #40	; 0x28
    b560:	e3400020 	movt	r0, #32
    b564:	ebfffc17 	bl	a5c8 <bcm2835_write>
    b568:	e301002c 	movw	r0, #4140	; 0x102c
    b56c:	e3a01070 	mov	r1, #112	; 0x70
    b570:	e3400020 	movt	r0, #32
    b574:	ebfffc13 	bl	a5c8 <bcm2835_write>
    b578:	e3010038 	movw	r0, #4152	; 0x1038
    b57c:	e1a01004 	mov	r1, r4
    b580:	e3400020 	movt	r0, #32
    b584:	ebfffc0f 	bl	a5c8 <bcm2835_write>
    b588:	e1a00006 	mov	r0, r6
    b58c:	e3001301 	movw	r1, #769	; 0x301
    b590:	ebfffc0c 	bl	a5c8 <bcm2835_write>
    b594:	e1a00004 	mov	r0, r4
    b598:	e8bd81f0 	pop	{r4, r5, r6, r7, r8, pc}

0000b59c <memory_total_free>:
    b59c:	e3083570 	movw	r3, #34160	; 0x8570
    b5a0:	e3403002 	movt	r3, #2
    b5a4:	e5930000 	ldr	r0, [r3]
    b5a8:	e3500000 	cmp	r0, #0
    b5ac:	012fff1e 	bxeq	lr
    b5b0:	e3a03000 	mov	r3, #0
    b5b4:	e308c578 	movw	ip, #34168	; 0x8578
    b5b8:	e92d4010 	push	{r4, lr}
    b5bc:	e1a0e003 	mov	lr, r3
    b5c0:	e340c002 	movt	ip, #2
    b5c4:	e3a04001 	mov	r4, #1
    b5c8:	e1a012c3 	asr	r1, r3, #5
    b5cc:	e203201f 	and	r2, r3, #31
    b5d0:	e2833001 	add	r3, r3, #1
    b5d4:	e79c1101 	ldr	r1, [ip, r1, lsl #2]
    b5d8:	e0112214 	ands	r2, r1, r4, lsl r2
    b5dc:	028ee001 	addeq	lr, lr, #1
    b5e0:	e1530000 	cmp	r3, r0
    b5e4:	1afffff7 	bne	b5c8 <memory_total_free+0x2c>
    b5e8:	e1a0060e 	lsl	r0, lr, #12
    b5ec:	e8bd8010 	pop	{r4, pc}

0000b5f0 <memory_allocate>:
    b5f0:	e3053410 	movw	r3, #21520	; 0x5410
    b5f4:	e3082570 	movw	r2, #34160	; 0x8570
    b5f8:	e92d4ff0 	push	{r4, r5, r6, r7, r8, r9, sl, fp, lr}
    b5fc:	e24dd014 	sub	sp, sp, #20
    b600:	e3403002 	movt	r3, #2
    b604:	e3500001 	cmp	r0, #1
    b608:	e3402002 	movt	r2, #2
    b60c:	e58d3008 	str	r3, [sp, #8]
    b610:	e5933000 	ldr	r3, [r3]
    b614:	e592c000 	ldr	ip, [r2]
    b618:	21a02000 	movcs	r2, r0
    b61c:	e2833001 	add	r3, r3, #1
    b620:	33a02001 	movcc	r2, #1
    b624:	e58d200c 	str	r2, [sp, #12]
    b628:	e730fc13 	udiv	r0, r3, ip
    b62c:	e060309c 	mls	r0, ip, r0, r3
    b630:	e08cb000 	add	fp, ip, r0
    b634:	e150000b 	cmp	r0, fp
    b638:	2a000041 	bcs	b744 <memory_allocate+0x154>
    b63c:	e242a001 	sub	sl, r2, #1
    b640:	e3085578 	movw	r5, #34168	; 0x8578
    b644:	e3405002 	movt	r5, #2
    b648:	e3a08001 	mov	r8, #1
    b64c:	e1a0a62a 	lsr	sl, sl, #12
    b650:	e28aa001 	add	sl, sl, #1
    b654:	ea000002 	b	b664 <memory_allocate+0x74>
    b658:	e2800001 	add	r0, r0, #1
    b65c:	e15b0000 	cmp	fp, r0
    b660:	9a000037 	bls	b744 <memory_allocate+0x154>
    b664:	e733fc10 	udiv	r3, r0, ip
    b668:	e063039c 	mls	r3, ip, r3, r0
    b66c:	e58d3004 	str	r3, [sp, #4]
    b670:	e3530000 	cmp	r3, #0
    b674:	e283201f 	add	r2, r3, #31
    b678:	a1a02003 	movge	r2, r3
    b67c:	e2731000 	rsbs	r1, r3, #0
    b680:	e203701f 	and	r7, r3, #31
    b684:	e1a022c2 	asr	r2, r2, #5
    b688:	e201101f 	and	r1, r1, #31
    b68c:	e7954102 	ldr	r4, [r5, r2, lsl #2]
    b690:	e1a02007 	mov	r2, r7
    b694:	52612000 	rsbpl	r2, r1, #0
    b698:	e0141218 	ands	r1, r4, r8, lsl r2
    b69c:	1affffed 	bne	b658 <memory_allocate+0x68>
    b6a0:	e732fc13 	udiv	r2, r3, ip
    b6a4:	e1a0e003 	mov	lr, r3
    b6a8:	ea000007 	b	b6cc <memory_allocate+0xdc>
    b6ac:	e732fc1e 	udiv	r2, lr, ip
    b6b0:	e064e29c 	mls	r4, ip, r2, lr
    b6b4:	e1a01006 	mov	r1, r6
    b6b8:	e3540000 	cmp	r4, #0
    b6bc:	e284601f 	add	r6, r4, #31
    b6c0:	b1a04006 	movlt	r4, r6
    b6c4:	e1a042c4 	asr	r4, r4, #5
    b6c8:	e7954104 	ldr	r4, [r5, r4, lsl #2]
    b6cc:	e062e29c 	mls	r2, ip, r2, lr
    b6d0:	e2816001 	add	r6, r1, #1
    b6d4:	e28ee001 	add	lr, lr, #1
    b6d8:	e2729000 	rsbs	r9, r2, #0
    b6dc:	e202201f 	and	r2, r2, #31
    b6e0:	e209901f 	and	r9, r9, #31
    b6e4:	52692000 	rsbpl	r2, r9, #0
    b6e8:	e0142218 	ands	r2, r4, r8, lsl r2
    b6ec:	1affffd9 	bne	b658 <memory_allocate+0x68>
    b6f0:	e15a0006 	cmp	sl, r6
    b6f4:	caffffec 	bgt	b6ac <memory_allocate+0xbc>
    b6f8:	1affffd6 	bne	b658 <memory_allocate+0x68>
    b6fc:	e59d2008 	ldr	r2, [sp, #8]
    b700:	e3530000 	cmp	r3, #0
    b704:	a0811003 	addge	r1, r1, r3
    b708:	a3a0c001 	movge	ip, #1
    b70c:	e5823000 	str	r3, [r2]
    b710:	ba00000b 	blt	b744 <memory_allocate+0x154>
    b714:	e1a002c3 	asr	r0, r3, #5
    b718:	e1510003 	cmp	r1, r3
    b71c:	e2833001 	add	r3, r3, #1
    b720:	e7952100 	ldr	r2, [r5, r0, lsl #2]
    b724:	e182271c 	orr	r2, r2, ip, lsl r7
    b728:	e203701f 	and	r7, r3, #31
    b72c:	e7852100 	str	r2, [r5, r0, lsl #2]
    b730:	1afffff7 	bne	b714 <memory_allocate+0x124>
    b734:	e59d3004 	ldr	r3, [sp, #4]
    b738:	e1a00603 	lsl	r0, r3, #12
    b73c:	e28dd014 	add	sp, sp, #20
    b740:	e8bd8ff0 	pop	{r4, r5, r6, r7, r8, r9, sl, fp, pc}
    b744:	e59d100c 	ldr	r1, [sp, #12]
    b748:	e30d0900 	movw	r0, #55552	; 0xd900
    b74c:	e3400000 	movt	r0, #0
    b750:	eb0004d6 	bl	cab0 <printk>
    b754:	e3a00000 	mov	r0, #0
    b758:	e28dd014 	add	sp, sp, #20
    b75c:	e8bd8ff0 	pop	{r4, r5, r6, r7, r8, r9, sl, fp, pc}

0000b760 <memory_free>:
    b760:	e2803eff 	add	r3, r0, #4080	; 0xff0
    b764:	e3500000 	cmp	r0, #0
    b768:	e92d4070 	push	{r4, r5, r6, lr}
    b76c:	e283300f 	add	r3, r3, #15
    b770:	e2415001 	sub	r5, r1, #1
    b774:	e1a04000 	mov	r4, r0
    b778:	e1a02001 	mov	r2, r1
    b77c:	b1a04003 	movlt	r4, r3
    b780:	e3a01056 	mov	r1, #86	; 0x56
    b784:	e3a06001 	mov	r6, #1
    b788:	e1a05625 	lsr	r5, r5, #12
    b78c:	eb000393 	bl	c5e0 <memset>
    b790:	e308e578 	movw	lr, #34168	; 0x8578
    b794:	e2855001 	add	r5, r5, #1
    b798:	e1a04644 	asr	r4, r4, #12
    b79c:	e3a01000 	mov	r1, #0
    b7a0:	e340e002 	movt	lr, #2
    b7a4:	e0813004 	add	r3, r1, r4
    b7a8:	e2811001 	add	r1, r1, #1
    b7ac:	e3530000 	cmp	r3, #0
    b7b0:	e283201f 	add	r2, r3, #31
    b7b4:	a1a02003 	movge	r2, r3
    b7b8:	e203c01f 	and	ip, r3, #31
    b7bc:	e2733000 	rsbs	r3, r3, #0
    b7c0:	e1a022c2 	asr	r2, r2, #5
    b7c4:	e203301f 	and	r3, r3, #31
    b7c8:	5263c000 	rsbpl	ip, r3, #0
    b7cc:	e79e0102 	ldr	r0, [lr, r2, lsl #2]
    b7d0:	e1550001 	cmp	r5, r1
    b7d4:	e1c03c16 	bic	r3, r0, r6, lsl ip
    b7d8:	e78e3102 	str	r3, [lr, r2, lsl #2]
    b7dc:	cafffff0 	bgt	b7a4 <memory_free+0x44>
    b7e0:	e3a00000 	mov	r0, #0
    b7e4:	e8bd8070 	pop	{r4, r5, r6, pc}

0000b7e8 <memory_get_total>:
    b7e8:	e3083570 	movw	r3, #34160	; 0x8570
    b7ec:	e3403002 	movt	r3, #2
    b7f0:	e5930004 	ldr	r0, [r3, #4]
    b7f4:	e12fff1e 	bx	lr

0000b7f8 <memory_hierarchy_init>:
    b7f8:	e92d4070 	push	{r4, r5, r6, lr}
    b7fc:	e24dd008 	sub	sp, sp, #8
    b800:	e1a06000 	mov	r6, r0
    b804:	e28d1004 	add	r1, sp, #4
    b808:	e1a0000d 	mov	r0, sp
    b80c:	e3085570 	movw	r5, #34160	; 0x8570
    b810:	e3405002 	movt	r5, #2
    b814:	ebfff3cc 	bl	874c <hardware_get_memory>
    b818:	e59d4004 	ldr	r4, [sp, #4]
    b81c:	e5854004 	str	r4, [r5, #4]
    b820:	e3540101 	cmp	r4, #1073741824	; 0x40000000
    b824:	8a000042 	bhi	b934 <memory_hierarchy_init+0x13c>
    b828:	e30d0948 	movw	r0, #55624	; 0xd948
    b82c:	e3a03008 	mov	r3, #8
    b830:	e1a01a24 	lsr	r1, r4, #20
    b834:	e3400000 	movt	r0, #0
    b838:	e1a02526 	lsr	r2, r6, #10
    b83c:	eb00049b 	bl	cab0 <printk>
    b840:	e1b018a4 	lsrs	r1, r4, #17
    b844:	e3083578 	movw	r3, #34168	; 0x8578
    b848:	e1a04624 	lsr	r4, r4, #12
    b84c:	03403002 	movteq	r3, #2
    b850:	e5854000 	str	r4, [r5]
    b854:	0a000006 	beq	b874 <memory_hierarchy_init+0x7c>
    b858:	e3403002 	movt	r3, #2
    b85c:	e3a00000 	mov	r0, #0
    b860:	e0831101 	add	r1, r3, r1, lsl #2
    b864:	e1a02003 	mov	r2, r3
    b868:	e4820004 	str	r0, [r2], #4
    b86c:	e1510002 	cmp	r1, r2
    b870:	1afffffc 	bne	b868 <memory_hierarchy_init+0x70>
    b874:	e1a01626 	lsr	r1, r6, #12
    b878:	e3a02000 	mov	r2, #0
    b87c:	e2811001 	add	r1, r1, #1
    b880:	e3a04001 	mov	r4, #1
    b884:	e1a0c2c2 	asr	ip, r2, #5
    b888:	e202e01f 	and	lr, r2, #31
    b88c:	e2822001 	add	r2, r2, #1
    b890:	e793010c 	ldr	r0, [r3, ip, lsl #2]
    b894:	e1510002 	cmp	r1, r2
    b898:	e1800e14 	orr	r0, r0, r4, lsl lr
    b89c:	e783010c 	str	r0, [r3, ip, lsl #2]
    b8a0:	1afffff7 	bne	b884 <memory_hierarchy_init+0x8c>
    b8a4:	ebfff3a4 	bl	873c <hardware_get_type>
    b8a8:	e3500007 	cmp	r0, #7
    b8ac:	0a000002 	beq	b8bc <memory_hierarchy_init+0xc4>
    b8b0:	ebfff3a1 	bl	873c <hardware_get_type>
    b8b4:	e3500009 	cmp	r0, #9
    b8b8:	1a000008 	bne	b8e0 <memory_hierarchy_init+0xe8>
    b8bc:	e30d0994 	movw	r0, #55700	; 0xd994
    b8c0:	e3400000 	movt	r0, #0
    b8c4:	eb000479 	bl	cab0 <printk>
    b8c8:	e5951004 	ldr	r1, [r5, #4]
    b8cc:	e1a02006 	mov	r2, r6
    b8d0:	e3a00000 	mov	r0, #0
    b8d4:	eb00001a 	bl	b944 <enable_mmu>
    b8d8:	e28dd008 	add	sp, sp, #8
    b8dc:	e8bd8070 	pop	{r4, r5, r6, pc}
    b8e0:	e30d09c4 	movw	r0, #55748	; 0xd9c4
    b8e4:	e3400000 	movt	r0, #0
    b8e8:	eb000470 	bl	cab0 <printk>
    b8ec:	eb000017 	bl	b950 <enable_l1_icache>
    b8f0:	e30d09d8 	movw	r0, #55768	; 0xd9d8
    b8f4:	e3400000 	movt	r0, #0
    b8f8:	eb00046c 	bl	cab0 <printk>
    b8fc:	eb000015 	bl	b958 <enable_branch_predictor>
    b900:	e30d0994 	movw	r0, #55700	; 0xd994
    b904:	e3400000 	movt	r0, #0
    b908:	eb000468 	bl	cab0 <printk>
    b90c:	e5951004 	ldr	r1, [r5, #4]
    b910:	e1a02006 	mov	r2, r6
    b914:	e3a00000 	mov	r0, #0
    b918:	eb000009 	bl	b944 <enable_mmu>
    b91c:	e30d09f4 	movw	r0, #55796	; 0xd9f4
    b920:	e3400000 	movt	r0, #0
    b924:	eb000461 	bl	cab0 <printk>
    b928:	eb000006 	bl	b948 <enable_l1_dcache>
    b92c:	e28dd008 	add	sp, sp, #8
    b930:	e8bd8070 	pop	{r4, r5, r6, pc}
    b934:	e30d092c 	movw	r0, #55596	; 0xd92c
    b938:	e3400000 	movt	r0, #0
    b93c:	eb00045b 	bl	cab0 <printk>
    b940:	eaffffd7 	b	b8a4 <memory_hierarchy_init+0xac>

0000b944 <enable_mmu>:
    b944:	e12fff1e 	bx	lr

0000b948 <enable_l1_dcache>:
    b948:	e12fff1e 	bx	lr

0000b94c <disable_l1_dcache>:
    b94c:	e12fff1e 	bx	lr

0000b950 <enable_l1_icache>:
    b950:	e12fff1e 	bx	lr

0000b954 <disable_l1_icache>:
    b954:	e12fff1e 	bx	lr

0000b958 <enable_branch_predictor>:
    b958:	e12fff1e 	bx	lr

0000b95c <disable_branch_predictor>:
    b95c:	e12fff1e 	bx	lr

0000b960 <l1_cache_detect>:
    b960:	e12fff1e 	bx	lr

0000b964 <process_get_totals>:
    b964:	e3003578 	movw	r3, #1400	; 0x578
    b968:	e3a00000 	mov	r0, #0
    b96c:	e3403003 	movt	r3, #3
    b970:	e5933000 	ldr	r3, [r3]
    b974:	e5810000 	str	r0, [r1]
    b978:	e5932098 	ldr	r2, [r3, #152]	; 0x98
    b97c:	e2800001 	add	r0, r0, #1
    b980:	e5933084 	ldr	r3, [r3, #132]	; 0x84
    b984:	e3520001 	cmp	r2, #1
    b988:	05912000 	ldreq	r2, [r1]
    b98c:	02822001 	addeq	r2, r2, #1
    b990:	05812000 	streq	r2, [r1]
    b994:	e3530000 	cmp	r3, #0
    b998:	1afffff6 	bne	b978 <process_get_totals+0x14>
    b99c:	e12fff1e 	bx	lr

0000b9a0 <process_lookup>:
    b9a0:	e3003578 	movw	r3, #1400	; 0x578
    b9a4:	e1a02000 	mov	r2, r0
    b9a8:	e3403003 	movt	r3, #3
    b9ac:	e5930000 	ldr	r0, [r3]
    b9b0:	e3500000 	cmp	r0, #0
    b9b4:	012fff1e 	bxeq	lr
    b9b8:	e59030a8 	ldr	r3, [r0, #168]	; 0xa8
    b9bc:	e1530002 	cmp	r3, r2
    b9c0:	012fff1e 	bxeq	lr
    b9c4:	e5900084 	ldr	r0, [r0, #132]	; 0x84
    b9c8:	e3500000 	cmp	r0, #0
    b9cc:	1afffff9 	bne	b9b8 <process_lookup+0x18>
    b9d0:	e12fff1e 	bx	lr

0000b9d4 <process_lookup_child>:
    b9d4:	e3002578 	movw	r2, #1400	; 0x578
    b9d8:	e1a03000 	mov	r3, r0
    b9dc:	e3402003 	movt	r2, #3
    b9e0:	e5920000 	ldr	r0, [r2]
    b9e4:	e3500000 	cmp	r0, #0
    b9e8:	012fff1e 	bxeq	lr
    b9ec:	e1530000 	cmp	r3, r0
    b9f0:	0a000002 	beq	ba00 <process_lookup_child+0x2c>
    b9f4:	e59020b0 	ldr	r2, [r0, #176]	; 0xb0
    b9f8:	e1520003 	cmp	r2, r3
    b9fc:	012fff1e 	bxeq	lr
    ba00:	e5900084 	ldr	r0, [r0, #132]	; 0x84
    ba04:	e3500000 	cmp	r0, #0
    ba08:	1afffff7 	bne	b9ec <process_lookup_child+0x18>
    ba0c:	e12fff1e 	bx	lr

0000ba10 <process_create>:
    ba10:	e92d4070 	push	{r4, r5, r6, lr}
    ba14:	e3a00a02 	mov	r0, #8192	; 0x2000
    ba18:	ebfffef4 	bl	b5f0 <memory_allocate>
    ba1c:	e2504000 	subs	r4, r0, #0
    ba20:	0a00002b 	beq	bad4 <process_create+0xc4>
    ba24:	e3a01000 	mov	r1, #0
    ba28:	e3a02a02 	mov	r2, #8192	; 0x2000
    ba2c:	e1a05001 	mov	r5, r1
    ba30:	eb0002ea 	bl	c5e0 <memset>
    ba34:	e5845094 	str	r5, [r4, #148]	; 0x94
    ba38:	e5845098 	str	r5, [r4, #152]	; 0x98
    ba3c:	eb000296 	bl	c49c <ticks_since_boot>
    ba40:	e584009c 	str	r0, [r4, #156]	; 0x9c
    ba44:	e300c578 	movw	ip, #1400	; 0x578
    ba48:	e340c003 	movt	ip, #3
    ba4c:	e1a02005 	mov	r2, r5
    ba50:	e58400a0 	str	r0, [r4, #160]	; 0xa0
    ba54:	e2443004 	sub	r3, r4, #4
    ba58:	e59ce004 	ldr	lr, [ip, #4]
    ba5c:	e2841034 	add	r1, r4, #52	; 0x34
    ba60:	e58450a4 	str	r5, [r4, #164]	; 0xa4
    ba64:	e58450b8 	str	r5, [r4, #184]	; 0xb8
    ba68:	e28e0001 	add	r0, lr, #1
    ba6c:	e58450c0 	str	r5, [r4, #192]	; 0xc0
    ba70:	e58450bc 	str	r5, [r4, #188]	; 0xbc
    ba74:	e58450c4 	str	r5, [r4, #196]	; 0xc4
    ba78:	e584e0a8 	str	lr, [r4, #168]	; 0xa8
    ba7c:	e58c0004 	str	r0, [ip, #4]
    ba80:	e5a32004 	str	r2, [r3, #4]!
    ba84:	e1530001 	cmp	r3, r1
    ba88:	1afffffc 	bne	ba80 <process_create+0x70>
    ba8c:	e59c3000 	ldr	r3, [ip]
    ba90:	e3a01010 	mov	r1, #16
    ba94:	e5842038 	str	r2, [r4, #56]	; 0x38
    ba98:	e5841040 	str	r1, [r4, #64]	; 0x40
    ba9c:	e3530000 	cmp	r3, #0
    baa0:	058c4000 	streq	r4, [ip]
    baa4:	05843084 	streq	r3, [r4, #132]	; 0x84
    baa8:	05843088 	streq	r3, [r4, #136]	; 0x88
    baac:	0a000006 	beq	bacc <process_create+0xbc>
    bab0:	e1a02003 	mov	r2, r3
    bab4:	e5933084 	ldr	r3, [r3, #132]	; 0x84
    bab8:	e3530000 	cmp	r3, #0
    babc:	1afffffb 	bne	bab0 <process_create+0xa0>
    bac0:	e5824084 	str	r4, [r2, #132]	; 0x84
    bac4:	e5843084 	str	r3, [r4, #132]	; 0x84
    bac8:	e5842088 	str	r2, [r4, #136]	; 0x88
    bacc:	e1a00004 	mov	r0, r4
    bad0:	e8bd8070 	pop	{r4, r5, r6, pc}
    bad4:	e30d0a08 	movw	r0, #55816	; 0xda08
    bad8:	e3400000 	movt	r0, #0
    badc:	eb0003f3 	bl	cab0 <printk>
    bae0:	eafffff9 	b	bacc <process_create+0xbc>

0000bae4 <process_destroy>:
    bae4:	e92d4070 	push	{r4, r5, r6, lr}
    bae8:	e3005578 	movw	r5, #1400	; 0x578
    baec:	e3405003 	movt	r5, #3
    baf0:	e3a02000 	mov	r2, #0
    baf4:	e5802090 	str	r2, [r0, #144]	; 0x90
    baf8:	e1a04000 	mov	r4, r0
    bafc:	e5953000 	ldr	r3, [r5]
    bb00:	e1530002 	cmp	r3, r2
    bb04:	0a000025 	beq	bba0 <process_destroy+0xbc>
    bb08:	e1500003 	cmp	r0, r3
    bb0c:	1a000002 	bne	bb1c <process_destroy+0x38>
    bb10:	ea00001c 	b	bb88 <process_destroy+0xa4>
    bb14:	e1540003 	cmp	r4, r3
    bb18:	0a000014 	beq	bb70 <process_destroy+0x8c>
    bb1c:	e5933084 	ldr	r3, [r3, #132]	; 0x84
    bb20:	e3530000 	cmp	r3, #0
    bb24:	1afffffa 	bne	bb14 <process_destroy+0x30>
    bb28:	e30d0a6c 	movw	r0, #55916	; 0xda6c
    bb2c:	e3400000 	movt	r0, #0
    bb30:	eb0003de 	bl	cab0 <printk>
    bb34:	e59400b8 	ldr	r0, [r4, #184]	; 0xb8
    bb38:	e3500000 	cmp	r0, #0
    bb3c:	0a000001 	beq	bb48 <process_destroy+0x64>
    bb40:	e59410bc 	ldr	r1, [r4, #188]	; 0xbc
    bb44:	ebffff05 	bl	b760 <memory_free>
    bb48:	e59400c0 	ldr	r0, [r4, #192]	; 0xc0
    bb4c:	e3500000 	cmp	r0, #0
    bb50:	0a000001 	beq	bb5c <process_destroy+0x78>
    bb54:	e59410c4 	ldr	r1, [r4, #196]	; 0xc4
    bb58:	ebffff00 	bl	b760 <memory_free>
    bb5c:	e1a00004 	mov	r0, r4
    bb60:	e3a01a02 	mov	r1, #8192	; 0x2000
    bb64:	ebfffefd 	bl	b760 <memory_free>
    bb68:	e3a00000 	mov	r0, #0
    bb6c:	e8bd8070 	pop	{r4, r5, r6, pc}
    bb70:	e5943084 	ldr	r3, [r4, #132]	; 0x84
    bb74:	e5942088 	ldr	r2, [r4, #136]	; 0x88
    bb78:	e3530000 	cmp	r3, #0
    bb7c:	e5823084 	str	r3, [r2, #132]	; 0x84
    bb80:	15832088 	strne	r2, [r3, #136]	; 0x88
    bb84:	eaffffea 	b	bb34 <process_destroy+0x50>
    bb88:	e30d0a50 	movw	r0, #55888	; 0xda50
    bb8c:	e3400000 	movt	r0, #0
    bb90:	eb0003c6 	bl	cab0 <printk>
    bb94:	e5943084 	ldr	r3, [r4, #132]	; 0x84
    bb98:	e5853000 	str	r3, [r5]
    bb9c:	eaffffe4 	b	bb34 <process_destroy+0x50>
    bba0:	e30d0a28 	movw	r0, #55848	; 0xda28
    bba4:	e3400000 	movt	r0, #0
    bba8:	eb0003c0 	bl	cab0 <printk>
    bbac:	eaffffe0 	b	bb34 <process_destroy+0x50>

0000bbb0 <process_save>:
    bbb0:	e2800044 	add	r0, r0, #68	; 0x44
    bbb4:	e1a02000 	mov	r2, r0
    bbb8:	e8827fff 	stm	r2, {r0, r1, r2, r3, r4, r5, r6, r7, r8, r9, sl, fp, ip, sp, lr}
    bbbc:	e2822034 	add	r2, r2, #52	; 0x34
    bbc0:	e5821000 	str	r1, [r2]
    bbc4:	e2822008 	add	r2, r2, #8
    bbc8:	e14f0000 	mrs	r0, SPSR
    bbcc:	e8820001 	stm	r2, {r0}
    bbd0:	e12fff1e 	bx	lr

0000bbd4 <process_switch>:
    bbd4:	e2800044 	add	r0, r0, #68	; 0x44
    bbd8:	e1a02000 	mov	r2, r0
    bbdc:	e8827fff 	stm	r2, {r0, r1, r2, r3, r4, r5, r6, r7, r8, r9, sl, fp, ip, sp, lr}
    bbe0:	e282203c 	add	r2, r2, #60	; 0x3c
    bbe4:	e14f0000 	mrs	r0, SPSR
    bbe8:	e8820001 	stm	r2, {r0}
    bbec:	e3003578 	movw	r3, #1400	; 0x578
    bbf0:	e2812044 	add	r2, r1, #68	; 0x44
    bbf4:	e3403003 	movt	r3, #3
    bbf8:	e5831008 	str	r1, [r3, #8]
    bbfc:	e1a02002 	mov	r2, r2
    bc00:	e592003c 	ldr	r0, [r2, #60]	; 0x3c
    bc04:	e169f000 	msr	SPSR_fc, r0
    bc08:	e8927fff 	ldm	r2, {r0, r1, r2, r3, r4, r5, r6, r7, r8, r9, sl, fp, ip, sp, lr}
    bc0c:	e1a0f00e 	mov	pc, lr
    bc10:	e3a00000 	mov	r0, #0
    bc14:	e12fff1e 	bx	lr

0000bc18 <execve>:
    bc18:	e92d4ff0 	push	{r4, r5, r6, r7, r8, r9, sl, fp, lr}
    bc1c:	e24dd04c 	sub	sp, sp, #76	; 0x4c
    bc20:	e1a06001 	mov	r6, r1
    bc24:	e1a05000 	mov	r5, r0
    bc28:	ebfff830 	bl	9cf0 <get_inode>
    bc2c:	e2504000 	subs	r4, r0, #0
    bc30:	ba000066 	blt	bdd0 <execve+0x1b8>
    bc34:	e28d1014 	add	r1, sp, #20
    bc38:	ebfff927 	bl	a0dc <romfs_stat>
    bc3c:	e3500000 	cmp	r0, #0
    bc40:	b1a04000 	movlt	r4, r0
    bc44:	ba000061 	blt	bdd0 <execve+0x1b8>
    bc48:	e59d9030 	ldr	r9, [sp, #48]	; 0x30
    bc4c:	e58d9004 	str	r9, [sp, #4]
    bc50:	e1a00009 	mov	r0, r9
    bc54:	ebfffe65 	bl	b5f0 <memory_allocate>
    bc58:	e1a08000 	mov	r8, r0
    bc5c:	e3a00a02 	mov	r0, #8192	; 0x2000
    bc60:	ebfffe62 	bl	b5f0 <memory_allocate>
    bc64:	e16f7f10 	clz	r7, r0
    bc68:	e3580000 	cmp	r8, #0
    bc6c:	e58d0000 	str	r0, [sp]
    bc70:	e1a072a7 	lsr	r7, r7, #5
    bc74:	03a07001 	moveq	r7, #1
    bc78:	e3570000 	cmp	r7, #0
    bc7c:	1a000062 	bne	be0c <execve+0x1f4>
    bc80:	e3003580 	movw	r3, #1408	; 0x580
    bc84:	e1a00004 	mov	r0, r4
    bc88:	e3403003 	movt	r3, #3
    bc8c:	e1a02008 	mov	r2, r8
    bc90:	e58d300c 	str	r3, [sp, #12]
    bc94:	e1a04003 	mov	r4, r3
    bc98:	e1a01007 	mov	r1, r7
    bc9c:	e1a03009 	mov	r3, r9
    bca0:	ebfff9c3 	bl	a3b4 <romfs_read_file>
    bca4:	e5940000 	ldr	r0, [r4]
    bca8:	e1a01005 	mov	r1, r5
    bcac:	e3a02020 	mov	r2, #32
    bcb0:	e28000c8 	add	r0, r0, #200	; 0xc8
    bcb4:	eb0003e8 	bl	cc5c <strlcpy>
    bcb8:	e3560000 	cmp	r6, #0
    bcbc:	0a000046 	beq	bddc <execve+0x1c4>
    bcc0:	e5963000 	ldr	r3, [r6]
    bcc4:	e3530000 	cmp	r3, #0
    bcc8:	0a000049 	beq	bdf4 <execve+0x1dc>
    bccc:	e1a04007 	mov	r4, r7
    bcd0:	e1a01006 	mov	r1, r6
    bcd4:	e5b10004 	ldr	r0, [r1, #4]!
    bcd8:	e1a02004 	mov	r2, r4
    bcdc:	e2844001 	add	r4, r4, #1
    bce0:	e3500000 	cmp	r0, #0
    bce4:	e1a07004 	mov	r7, r4
    bce8:	1afffff9 	bne	bcd4 <execve+0xbc>
    bcec:	e2825002 	add	r5, r2, #2
    bcf0:	e1a02102 	lsl	r2, r2, #2
    bcf4:	e1a05105 	lsl	r5, r5, #2
    bcf8:	e282900c 	add	r9, r2, #12
    bcfc:	e7962002 	ldr	r2, [r6, r2]
    bd00:	e3a00000 	mov	r0, #0
    bd04:	e2855001 	add	r5, r5, #1
    bd08:	e042b003 	sub	fp, r2, r3
    bd0c:	eb000414 	bl	cd64 <strlen>
    bd10:	e0855000 	add	r5, r5, r0
    bd14:	e3a01000 	mov	r1, #0
    bd18:	e085300b 	add	r3, r5, fp
    bd1c:	e1530001 	cmp	r3, r1
    bd20:	e2832007 	add	r2, r3, #7
    bd24:	b1a03002 	movlt	r3, r2
    bd28:	e3c33007 	bic	r3, r3, #7
    bd2c:	e59d2000 	ldr	r2, [sp]
    bd30:	e2633d7f 	rsb	r3, r3, #8128	; 0x1fc0
    bd34:	e1540001 	cmp	r4, r1
    bd38:	e2833038 	add	r3, r3, #56	; 0x38
    bd3c:	e0823003 	add	r3, r2, r3
    bd40:	e0835009 	add	r5, r3, r9
    bd44:	e58d3008 	str	r3, [sp, #8]
    bd48:	e7c31009 	strb	r1, [r3, r9]
    bd4c:	0a000011 	beq	bd98 <execve+0x180>
    bd50:	e2466004 	sub	r6, r6, #4
    bd54:	e1a0b003 	mov	fp, r3
    bd58:	e0839104 	add	r9, r3, r4, lsl #2
    bd5c:	e5b6a004 	ldr	sl, [r6, #4]!
    bd60:	e48b5004 	str	r5, [fp], #4
    bd64:	e1a0000a 	mov	r0, sl
    bd68:	eb0003fd 	bl	cd64 <strlen>
    bd6c:	e2802001 	add	r2, r0, #1
    bd70:	e1a0100a 	mov	r1, sl
    bd74:	e1a00005 	mov	r0, r5
    bd78:	eb00039f 	bl	cbfc <strncpy>
    bd7c:	e1a05000 	mov	r5, r0
    bd80:	e5960000 	ldr	r0, [r6]
    bd84:	eb0003f6 	bl	cd64 <strlen>
    bd88:	e159000b 	cmp	r9, fp
    bd8c:	e2800001 	add	r0, r0, #1
    bd90:	e0855000 	add	r5, r5, r0
    bd94:	1afffff0 	bne	bd5c <execve+0x144>
    bd98:	e59d300c 	ldr	r3, [sp, #12]
    bd9c:	e3a02a02 	mov	r2, #8192	; 0x2000
    bda0:	e59d1008 	ldr	r1, [sp, #8]
    bda4:	e5933000 	ldr	r3, [r3]
    bda8:	e59d0000 	ldr	r0, [sp]
    bdac:	e5831034 	str	r1, [r3, #52]	; 0x34
    bdb0:	e5831004 	str	r1, [r3, #4]
    bdb4:	e59d1004 	ldr	r1, [sp, #4]
    bdb8:	e58300b8 	str	r0, [r3, #184]	; 0xb8
    bdbc:	e5837000 	str	r7, [r3]
    bdc0:	e583803c 	str	r8, [r3, #60]	; 0x3c
    bdc4:	e58380c0 	str	r8, [r3, #192]	; 0xc0
    bdc8:	e58310c4 	str	r1, [r3, #196]	; 0xc4
    bdcc:	e58320bc 	str	r2, [r3, #188]	; 0xbc
    bdd0:	e1a00004 	mov	r0, r4
    bdd4:	e28dd04c 	add	sp, sp, #76	; 0x4c
    bdd8:	e8bd8ff0 	pop	{r4, r5, r6, r7, r8, r9, sl, fp, pc}
    bddc:	e59d3000 	ldr	r3, [sp]
    bde0:	e1a07006 	mov	r7, r6
    bde4:	e1a04006 	mov	r4, r6
    bde8:	e2833a02 	add	r3, r3, #8192	; 0x2000
    bdec:	e58d3008 	str	r3, [sp, #8]
    bdf0:	eaffffe8 	b	bd98 <execve+0x180>
    bdf4:	e1a07003 	mov	r7, r3
    bdf8:	e3a09008 	mov	r9, #8
    bdfc:	e3e02003 	mvn	r2, #3
    be00:	e3a05004 	mov	r5, #4
    be04:	e1a04003 	mov	r4, r3
    be08:	eaffffbb 	b	bcfc <execve+0xe4>
    be0c:	e3e0400b 	mvn	r4, #11
    be10:	eaffffee 	b	bdd0 <execve+0x1b8>

0000be14 <idle_task>:
    be14:	e320f003 	wfi
    be18:	eafffffd 	b	be14 <idle_task>

0000be1c <create_idle_task>:
    be1c:	e92d4070 	push	{r4, r5, r6, lr}
    be20:	ebfffefa 	bl	ba10 <process_create>
    be24:	e30b3e14 	movw	r3, #48660	; 0xbe14
    be28:	e3a02000 	mov	r2, #0
    be2c:	e3403000 	movt	r3, #0
    be30:	e3a05001 	mov	r5, #1
    be34:	e58020a4 	str	r2, [r0, #164]	; 0xa4
    be38:	e1a04000 	mov	r4, r0
    be3c:	e58030c0 	str	r3, [r0, #192]	; 0xc0
    be40:	e580303c 	str	r3, [r0, #60]	; 0x3c
    be44:	e5805094 	str	r5, [r0, #148]	; 0x94
    be48:	eb000193 	bl	c49c <ticks_since_boot>
    be4c:	e1a03000 	mov	r3, r0
    be50:	e3a00a01 	mov	r0, #4096	; 0x1000
    be54:	e584309c 	str	r3, [r4, #156]	; 0x9c
    be58:	e58430a0 	str	r3, [r4, #160]	; 0xa0
    be5c:	ebfffde3 	bl	b5f0 <memory_allocate>
    be60:	e58400b8 	str	r0, [r4, #184]	; 0xb8
    be64:	e30d1a98 	movw	r1, #55960	; 0xda98
    be68:	e3401000 	movt	r1, #0
    be6c:	e2800a01 	add	r0, r0, #4096	; 0x1000
    be70:	e5840034 	str	r0, [r4, #52]	; 0x34
    be74:	e3a02005 	mov	r2, #5
    be78:	e28400c8 	add	r0, r4, #200	; 0xc8
    be7c:	eb00035e 	bl	cbfc <strncpy>
    be80:	e59410a8 	ldr	r1, [r4, #168]	; 0xa8
    be84:	e30b3f64 	movw	r3, #48996	; 0xbf64
    be88:	e3403000 	movt	r3, #0
    be8c:	e30d0aa0 	movw	r0, #55968	; 0xdaa0
    be90:	e5845098 	str	r5, [r4, #152]	; 0x98
    be94:	e584307c 	str	r3, [r4, #124]	; 0x7c
    be98:	e3400000 	movt	r0, #0
    be9c:	e8bd4070 	pop	{r4, r5, r6, lr}
    bea0:	ea000302 	b	cab0 <printk>

0000bea4 <schedule>:
    bea4:	e92d4070 	push	{r4, r5, r6, lr}
    bea8:	e3003578 	movw	r3, #1400	; 0x578
    beac:	e3403003 	movt	r3, #3
    beb0:	e3005580 	movw	r5, #1408	; 0x580
    beb4:	e3405003 	movt	r5, #3
    beb8:	e5934000 	ldr	r4, [r3]
    bebc:	e5950000 	ldr	r0, [r5]
    bec0:	e1540000 	cmp	r4, r0
    bec4:	0a00001e 	beq	bf44 <schedule+0xa0>
    bec8:	e1a03000 	mov	r3, r0
    becc:	ea000004 	b	bee4 <schedule+0x40>
    bed0:	e5932098 	ldr	r2, [r3, #152]	; 0x98
    bed4:	e3520001 	cmp	r2, #1
    bed8:	0a000017 	beq	bf3c <schedule+0x98>
    bedc:	e1530000 	cmp	r3, r0
    bee0:	0a000005 	beq	befc <schedule+0x58>
    bee4:	e5933084 	ldr	r3, [r3, #132]	; 0x84
    bee8:	e3530000 	cmp	r3, #0
    beec:	1afffff7 	bne	bed0 <schedule+0x2c>
    bef0:	e5943084 	ldr	r3, [r4, #132]	; 0x84
    bef4:	e3530000 	cmp	r3, #0
    bef8:	1afffff4 	bne	bed0 <schedule+0x2c>
    befc:	eb000166 	bl	c49c <ticks_since_boot>
    bf00:	e5952000 	ldr	r2, [r5]
    bf04:	e59230a4 	ldr	r3, [r2, #164]	; 0xa4
    bf08:	e59210a0 	ldr	r1, [r2, #160]	; 0xa0
    bf0c:	e0433001 	sub	r3, r3, r1
    bf10:	e0833000 	add	r3, r3, r0
    bf14:	e58230a4 	str	r3, [r2, #164]	; 0xa4
    bf18:	eb00015f 	bl	c49c <ticks_since_boot>
    bf1c:	e5953000 	ldr	r3, [r5]
    bf20:	e58400a0 	str	r0, [r4, #160]	; 0xa0
    bf24:	e1530004 	cmp	r3, r4
    bf28:	08bd8070 	popeq	{r4, r5, r6, pc}
    bf2c:	e1a01004 	mov	r1, r4
    bf30:	e1a00003 	mov	r0, r3
    bf34:	e8bd4070 	pop	{r4, r5, r6, lr}
    bf38:	eaffff25 	b	bbd4 <process_switch>
    bf3c:	e1a04003 	mov	r4, r3
    bf40:	eaffffed 	b	befc <schedule+0x58>
    bf44:	e5940084 	ldr	r0, [r4, #132]	; 0x84
    bf48:	e3500000 	cmp	r0, #0
    bf4c:	1affffdd 	bne	bec8 <schedule+0x24>
    bf50:	e8bd8070 	pop	{r4, r5, r6, pc}

0000bf54 <sched_yield>:
    bf54:	e92d4010 	push	{r4, lr}
    bf58:	ebffffd1 	bl	bea4 <schedule>
    bf5c:	e3a00000 	mov	r0, #0
    bf60:	e8bd8010 	pop	{r4, pc}

0000bf64 <enter_userspace>:
    bf64:	e3003580 	movw	r3, #1408	; 0x580
    bf68:	e3403003 	movt	r3, #3
    bf6c:	e52de004 	push	{lr}		; (str lr, [sp, #-4]!)
    bf70:	e5933000 	ldr	r3, [r3]
    bf74:	e593303c 	ldr	r3, [r3, #60]	; 0x3c
    bf78:	e1a0e003 	mov	lr, r3
    bf7c:	e59fd0ac 	ldr	sp, [pc, #172]	; c030 <start_userspace+0x9c>
    bf80:	e59dd000 	ldr	sp, [sp]
    bf84:	e3a00010 	mov	r0, #16
    bf88:	e16ff000 	msr	SPSR_fsxc, r0
    bf8c:	e1b0f00e 	movs	pc, lr
    bf90:	e49df004 	pop	{pc}		; (ldr pc, [sp], #4)

0000bf94 <start_userspace>:
    bf94:	e92d48f0 	push	{r4, r5, r6, r7, fp, lr}
    bf98:	e28db014 	add	fp, sp, #20
    bf9c:	e1a06000 	mov	r6, r0
    bfa0:	ebfffe9a 	bl	ba10 <process_create>
    bfa4:	e1a04000 	mov	r4, r0
    bfa8:	e3005580 	movw	r5, #1408	; 0x580
    bfac:	e3405003 	movt	r5, #3
    bfb0:	e30d0064 	movw	r0, #53348	; 0xd064
    bfb4:	e3400000 	movt	r0, #0
    bfb8:	e58440b0 	str	r4, [r4, #176]	; 0xb0
    bfbc:	e5854000 	str	r4, [r5]
    bfc0:	ebfff74a 	bl	9cf0 <get_inode>
    bfc4:	e58400b4 	str	r0, [r4, #180]	; 0xb4
    bfc8:	e3a02000 	mov	r2, #0
    bfcc:	e1a00006 	mov	r0, r6
    bfd0:	e1a01002 	mov	r1, r2
    bfd4:	ebffff0f 	bl	bc18 <execve>
    bfd8:	e3500000 	cmp	r0, #0
    bfdc:	b8bd88f0 	poplt	{r4, r5, r6, r7, fp, pc}
    bfe0:	e59410a8 	ldr	r1, [r4, #168]	; 0xa8
    bfe4:	e30d0abc 	movw	r0, #55996	; 0xdabc
    bfe8:	e3400000 	movt	r0, #0
    bfec:	e28420c8 	add	r2, r4, #200	; 0xc8
    bff0:	eb0002ae 	bl	cab0 <printk>
    bff4:	e5943034 	ldr	r3, [r4, #52]	; 0x34
    bff8:	e3a02001 	mov	r2, #1
    bffc:	e5842098 	str	r2, [r4, #152]	; 0x98
    c000:	e321f0df 	msr	CPSR_c, #223	; 0xdf
    c004:	e1a0d003 	mov	sp, r3
    c008:	e321f0d3 	msr	CPSR_c, #211	; 0xd3
    c00c:	e5953000 	ldr	r3, [r5]
    c010:	e593303c 	ldr	r3, [r3, #60]	; 0x3c
    c014:	e1a0e003 	mov	lr, r3
    c018:	e59fd010 	ldr	sp, [pc, #16]	; c030 <start_userspace+0x9c>
    c01c:	e59dd000 	ldr	sp, [sp]
    c020:	e3a00010 	mov	r0, #16
    c024:	e16ff000 	msr	SPSR_fsxc, r0
    c028:	e1b0f00e 	movs	pc, lr
    c02c:	e8bd88f0 	pop	{r4, r5, r6, r7, fp, pc}
    c030:	00030580 	andeq	r0, r3, r0, lsl #11

0000c034 <vfork>:
    c034:	e92d47f0 	push	{r4, r5, r6, r7, r8, r9, sl, lr}
    c038:	e59f8090 	ldr	r8, [pc, #144]	; c0d0 <vfork+0x9c>
    c03c:	e5985000 	ldr	r5, [r8]
    c040:	ebfffe72 	bl	ba10 <process_create>
    c044:	e2504000 	subs	r4, r0, #0
    c048:	0a00001c 	beq	c0c0 <vfork+0x8c>
    c04c:	e3a02a02 	mov	r2, #8192	; 0x2000
    c050:	e1a01005 	mov	r1, r5
    c054:	e3a06000 	mov	r6, #0
    c058:	e59470a8 	ldr	r7, [r4, #168]	; 0xa8
    c05c:	e594a088 	ldr	sl, [r4, #136]	; 0x88
    c060:	e5949084 	ldr	r9, [r4, #132]	; 0x84
    c064:	eb000110 	bl	c4ac <memcpy>
    c068:	e3a03001 	mov	r3, #1
    c06c:	e04d1005 	sub	r1, sp, r5
    c070:	e58470a8 	str	r7, [r4, #168]	; 0xa8
    c074:	e584a088 	str	sl, [r4, #136]	; 0x88
    c078:	e5849084 	str	r9, [r4, #132]	; 0x84
    c07c:	e58450b0 	str	r5, [r4, #176]	; 0xb0
    c080:	e58460b8 	str	r6, [r4, #184]	; 0xb8
    c084:	e58460c0 	str	r6, [r4, #192]	; 0xc0
    c088:	e1a00004 	mov	r0, r4
    c08c:	e5856098 	str	r6, [r5, #152]	; 0x98
    c090:	e0841001 	add	r1, r4, r1
    c094:	e5843098 	str	r3, [r4, #152]	; 0x98
    c098:	ebfffec4 	bl	bbb0 <process_save>
    c09c:	e5983000 	ldr	r3, [r8]
    c0a0:	e1530005 	cmp	r3, r5
    c0a4:	11a07006 	movne	r7, r6
    c0a8:	0a000001 	beq	c0b4 <vfork+0x80>
    c0ac:	e1a00007 	mov	r0, r7
    c0b0:	e8bd87f0 	pop	{r4, r5, r6, r7, r8, r9, sl, pc}
    c0b4:	ebffff7a 	bl	bea4 <schedule>
    c0b8:	e1a00007 	mov	r0, r7
    c0bc:	e8bd87f0 	pop	{r4, r5, r6, r7, r8, r9, sl, pc}
    c0c0:	e59f000c 	ldr	r0, [pc, #12]	; c0d4 <vfork+0xa0>
    c0c4:	eb000279 	bl	cab0 <printk>
    c0c8:	e3e07000 	mvn	r7, #0
    c0cc:	eafffff6 	b	c0ac <vfork+0x78>
    c0d0:	00030580 	andeq	r0, r3, r0, lsl #11
    c0d4:	0000daf0 	strdeq	sp, [r0], -r0

0000c0d8 <waitpid_done>:
    c0d8:	e92d4010 	push	{r4, lr}
    c0dc:	e59f0008 	ldr	r0, [pc, #8]	; c0ec <waitpid_done+0x14>
    c0e0:	eb00004c 	bl	c218 <wait_queue_wake>
    c0e4:	e3a00000 	mov	r0, #0
    c0e8:	e8bd8010 	pop	{r4, pc}
    c0ec:	00030588 	andeq	r0, r3, r8, lsl #11

0000c0f0 <waitpid>:
    c0f0:	e3700001 	cmn	r0, #1
    c0f4:	e92d41f0 	push	{r4, r5, r6, r7, r8, lr}
    c0f8:	e1a05000 	mov	r5, r0
    c0fc:	e1a08001 	mov	r8, r1
    c100:	e1a06002 	mov	r6, r2
    c104:	0a000022 	beq	c194 <waitpid+0xa4>
    c108:	e3500000 	cmp	r0, #0
    c10c:	ba000026 	blt	c1ac <waitpid+0xbc>
    c110:	ebfffe22 	bl	b9a0 <process_lookup>
    c114:	e1a04000 	mov	r4, r0
    c118:	e3560001 	cmp	r6, #1
    c11c:	e5943098 	ldr	r3, [r4, #152]	; 0x98
    c120:	0a000010 	beq	c168 <waitpid+0x78>
    c124:	e3530002 	cmp	r3, #2
    c128:	0a000007 	beq	c14c <waitpid+0x5c>
    c12c:	e59f708c 	ldr	r7, [pc, #140]	; c1c0 <waitpid+0xd0>
    c130:	e59f608c 	ldr	r6, [pc, #140]	; c1c4 <waitpid+0xd4>
    c134:	e1a00006 	mov	r0, r6
    c138:	e5971000 	ldr	r1, [r7]
    c13c:	eb000022 	bl	c1cc <wait_queue_add>
    c140:	e5943098 	ldr	r3, [r4, #152]	; 0x98
    c144:	e3530002 	cmp	r3, #2
    c148:	1afffff9 	bne	c134 <waitpid+0x44>
    c14c:	e3580000 	cmp	r8, #0
    c150:	159430ac 	ldrne	r3, [r4, #172]	; 0xac
    c154:	e1a00004 	mov	r0, r4
    c158:	15883000 	strne	r3, [r8]
    c15c:	ebfffe60 	bl	bae4 <process_destroy>
    c160:	e1a00005 	mov	r0, r5
    c164:	e8bd81f0 	pop	{r4, r5, r6, r7, r8, pc}
    c168:	e3530002 	cmp	r3, #2
    c16c:	13a05000 	movne	r5, #0
    c170:	1afffffa 	bne	c160 <waitpid+0x70>
    c174:	e3580000 	cmp	r8, #0
    c178:	159430ac 	ldrne	r3, [r4, #172]	; 0xac
    c17c:	e1a00004 	mov	r0, r4
    c180:	15883000 	strne	r3, [r8]
    c184:	e59450a8 	ldr	r5, [r4, #168]	; 0xa8
    c188:	ebfffe55 	bl	bae4 <process_destroy>
    c18c:	e1a00005 	mov	r0, r5
    c190:	e8bd81f0 	pop	{r4, r5, r6, r7, r8, pc}
    c194:	e1a00003 	mov	r0, r3
    c198:	ebfffe0d 	bl	b9d4 <process_lookup_child>
    c19c:	e2504000 	subs	r4, r0, #0
    c1a0:	1affffdc 	bne	c118 <waitpid+0x28>
    c1a4:	e3e05009 	mvn	r5, #9
    c1a8:	eaffffec 	b	c160 <waitpid+0x70>
    c1ac:	e1a01000 	mov	r1, r0
    c1b0:	e59f0010 	ldr	r0, [pc, #16]	; c1c8 <waitpid+0xd8>
    c1b4:	eb00023d 	bl	cab0 <printk>
    c1b8:	e3e05012 	mvn	r5, #18
    c1bc:	eaffffe7 	b	c160 <waitpid+0x70>
    c1c0:	00030580 	andeq	r0, r3, r0, lsl #11
    c1c4:	00030588 	andeq	r0, r3, r8, lsl #11
    c1c8:	0000db08 	andeq	sp, r0, r8, lsl #22

0000c1cc <wait_queue_add>:
    c1cc:	e5903000 	ldr	r3, [r0]
    c1d0:	e92d4010 	push	{r4, lr}
    c1d4:	e3530000 	cmp	r3, #0
    c1d8:	05801000 	streq	r1, [r0]
    c1dc:	1a000004 	bne	c1f4 <wait_queue_add+0x28>
    c1e0:	ea000005 	b	c1fc <wait_queue_add+0x30>
    c1e4:	e593208c 	ldr	r2, [r3, #140]	; 0x8c
    c1e8:	e3520000 	cmp	r2, #0
    c1ec:	0a000007 	beq	c210 <wait_queue_add+0x44>
    c1f0:	e1a03002 	mov	r3, r2
    c1f4:	e1530001 	cmp	r3, r1
    c1f8:	1afffff9 	bne	c1e4 <wait_queue_add+0x18>
    c1fc:	e3a04000 	mov	r4, #0
    c200:	e5814098 	str	r4, [r1, #152]	; 0x98
    c204:	ebffff26 	bl	bea4 <schedule>
    c208:	e1a00004 	mov	r0, r4
    c20c:	e8bd8010 	pop	{r4, pc}
    c210:	e583108c 	str	r1, [r3, #140]	; 0x8c
    c214:	eafffff8 	b	c1fc <wait_queue_add+0x30>

0000c218 <wait_queue_wake>:
    c218:	e5903000 	ldr	r3, [r0]
    c21c:	e52de004 	push	{lr}		; (str lr, [sp, #-4]!)
    c220:	e3530000 	cmp	r3, #0
    c224:	e1a0e000 	mov	lr, r0
    c228:	0a000007 	beq	c24c <wait_queue_wake+0x34>
    c22c:	e3a0c001 	mov	ip, #1
    c230:	e3a01000 	mov	r1, #0
    c234:	e1a02003 	mov	r2, r3
    c238:	e583c098 	str	ip, [r3, #152]	; 0x98
    c23c:	e593308c 	ldr	r3, [r3, #140]	; 0x8c
    c240:	e582108c 	str	r1, [r2, #140]	; 0x8c
    c244:	e3530000 	cmp	r3, #0
    c248:	1afffff9 	bne	c234 <wait_queue_wake+0x1c>
    c24c:	e3a00000 	mov	r0, #0
    c250:	e58e0000 	str	r0, [lr]
    c254:	e49df004 	pop	{pc}		; (ldr pc, [sp], #4)

0000c258 <dump_saved_user_state>:
    c258:	e92d47f0 	push	{r4, r5, r6, r7, r8, r9, sl, lr}
    c25c:	e1a04000 	mov	r4, r0
    c260:	e30d0b38 	movw	r0, #56120	; 0xdb38
    c264:	e28420c8 	add	r2, r4, #200	; 0xc8
    c268:	e59410a8 	ldr	r1, [r4, #168]	; 0xa8
    c26c:	e30d9b70 	movw	r9, #56176	; 0xdb70
    c270:	e3400000 	movt	r0, #0
    c274:	e30d8aec 	movw	r8, #56044	; 0xdaec
    c278:	e3409000 	movt	r9, #0
    c27c:	eb00020b 	bl	cab0 <printk>
    c280:	e594103c 	ldr	r1, [r4, #60]	; 0x3c
    c284:	e30d0b50 	movw	r0, #56144	; 0xdb50
    c288:	e5942040 	ldr	r2, [r4, #64]	; 0x40
    c28c:	e30d7b64 	movw	r7, #56164	; 0xdb64
    c290:	e3400000 	movt	r0, #0
    c294:	e3a05000 	mov	r5, #0
    c298:	e3408000 	movt	r8, #0
    c29c:	eb000203 	bl	cab0 <printk>
    c2a0:	e3407000 	movt	r7, #0
    c2a4:	e30d0b64 	movw	r0, #56164	; 0xdb64
    c2a8:	e4942004 	ldr	r2, [r4], #4
    c2ac:	e3a01000 	mov	r1, #0
    c2b0:	e3400000 	movt	r0, #0
    c2b4:	eb0001fd 	bl	cab0 <printk>
    c2b8:	e594201c 	ldr	r2, [r4, #28]
    c2bc:	e2851008 	add	r1, r5, #8
    c2c0:	e1a00009 	mov	r0, r9
    c2c4:	e2855001 	add	r5, r5, #1
    c2c8:	e2844004 	add	r4, r4, #4
    c2cc:	eb0001f7 	bl	cab0 <printk>
    c2d0:	e1a00008 	mov	r0, r8
    c2d4:	eb0001f5 	bl	cab0 <printk>
    c2d8:	e5142004 	ldr	r2, [r4, #-4]
    c2dc:	e1a01005 	mov	r1, r5
    c2e0:	e1a00007 	mov	r0, r7
    c2e4:	eb0001f1 	bl	cab0 <printk>
    c2e8:	e3550007 	cmp	r5, #7
    c2ec:	1afffff1 	bne	c2b8 <dump_saved_user_state+0x60>
    c2f0:	e30d0aec 	movw	r0, #56044	; 0xdaec
    c2f4:	e8bd47f0 	pop	{r4, r5, r6, r7, r8, r9, sl, lr}
    c2f8:	e3400000 	movt	r0, #0
    c2fc:	ea0001eb 	b	cab0 <printk>

0000c300 <dump_saved_kernel_state>:
    c300:	e92d47f0 	push	{r4, r5, r6, r7, r8, r9, sl, lr}
    c304:	e1a05000 	mov	r5, r0
    c308:	e30d0b78 	movw	r0, #56184	; 0xdb78
    c30c:	e28520c8 	add	r2, r5, #200	; 0xc8
    c310:	e59510a8 	ldr	r1, [r5, #168]	; 0xa8
    c314:	e30d9b70 	movw	r9, #56176	; 0xdb70
    c318:	e3400000 	movt	r0, #0
    c31c:	e30d8aec 	movw	r8, #56044	; 0xdaec
    c320:	e3409000 	movt	r9, #0
    c324:	eb0001e1 	bl	cab0 <printk>
    c328:	e3408000 	movt	r8, #0
    c32c:	e30d0b64 	movw	r0, #56164	; 0xdb64
    c330:	e5952044 	ldr	r2, [r5, #68]	; 0x44
    c334:	e3a01000 	mov	r1, #0
    c338:	e3400000 	movt	r0, #0
    c33c:	e2855048 	add	r5, r5, #72	; 0x48
    c340:	e3a04000 	mov	r4, #0
    c344:	e1a07000 	mov	r7, r0
    c348:	eb0001d8 	bl	cab0 <printk>
    c34c:	e595201c 	ldr	r2, [r5, #28]
    c350:	e2841008 	add	r1, r4, #8
    c354:	e1a00009 	mov	r0, r9
    c358:	e2844001 	add	r4, r4, #1
    c35c:	e2855004 	add	r5, r5, #4
    c360:	eb0001d2 	bl	cab0 <printk>
    c364:	e1a00008 	mov	r0, r8
    c368:	eb0001d0 	bl	cab0 <printk>
    c36c:	e5152004 	ldr	r2, [r5, #-4]
    c370:	e1a01004 	mov	r1, r4
    c374:	e1a00007 	mov	r0, r7
    c378:	eb0001cc 	bl	cab0 <printk>
    c37c:	e3540007 	cmp	r4, #7
    c380:	1afffff1 	bne	c34c <dump_saved_kernel_state+0x4c>
    c384:	e30d0aec 	movw	r0, #56044	; 0xdaec
    c388:	e8bd47f0 	pop	{r4, r5, r6, r7, r8, r9, sl, lr}
    c38c:	e3400000 	movt	r0, #0
    c390:	ea0001c6 	b	cab0 <printk>

0000c394 <dump_kernel_regs>:
    c394:	e92d4ff0 	push	{r4, r5, r6, r7, r8, r9, sl, fp, lr}
    c398:	e30d0b8c 	movw	r0, #56204	; 0xdb8c
    c39c:	e3400000 	movt	r0, #0
    c3a0:	e24dd014 	sub	sp, sp, #20
    c3a4:	e1a0100e 	mov	r1, lr
    c3a8:	e58de00c 	str	lr, [sp, #12]
    c3ac:	eb0001bf 	bl	cab0 <printk>
    c3b0:	e58d3000 	str	r3, [sp]
    c3b4:	e1a0c002 	mov	ip, r2
    c3b8:	e1a0e000 	mov	lr, r0
    c3bc:	e30d0bac 	movw	r0, #56236	; 0xdbac
    c3c0:	e3400000 	movt	r0, #0
    c3c4:	e1a0300c 	mov	r3, ip
    c3c8:	e1a02001 	mov	r2, r1
    c3cc:	e1a0100e 	mov	r1, lr
    c3d0:	eb0001b6 	bl	cab0 <printk>
    c3d4:	e58d7000 	str	r7, [sp]
    c3d8:	e30d0bcc 	movw	r0, #56268	; 0xdbcc
    c3dc:	e3400000 	movt	r0, #0
    c3e0:	e1a01004 	mov	r1, r4
    c3e4:	e1a02005 	mov	r2, r5
    c3e8:	e1a03006 	mov	r3, r6
    c3ec:	eb0001af 	bl	cab0 <printk>
    c3f0:	e58db000 	str	fp, [sp]
    c3f4:	e30d0bec 	movw	r0, #56300	; 0xdbec
    c3f8:	e3400000 	movt	r0, #0
    c3fc:	e1a01008 	mov	r1, r8
    c400:	e1a02009 	mov	r2, r9
    c404:	e1a0300a 	mov	r3, sl
    c408:	eb0001a8 	bl	cab0 <printk>
    c40c:	e59d300c 	ldr	r3, [sp, #12]
    c410:	e30d0c0c 	movw	r0, #56332	; 0xdc0c
    c414:	e3400000 	movt	r0, #0
    c418:	e1a0100c 	mov	r1, ip
    c41c:	e1a0200d 	mov	r2, sp
    c420:	e28dd014 	add	sp, sp, #20
    c424:	e8bd4ff0 	pop	{r4, r5, r6, r7, r8, r9, sl, fp, lr}
    c428:	ea0001a0 	b	cab0 <printk>

0000c42c <dump_memory>:
    c42c:	e92d47f0 	push	{r4, r5, r6, r7, r8, r9, sl, lr}
    c430:	e2516000 	subs	r6, r1, #0
    c434:	08bd87f0 	popeq	{r4, r5, r6, r7, r8, r9, sl, pc}
    c438:	e30d9c28 	movw	r9, #56360	; 0xdc28
    c43c:	e30d8c30 	movw	r8, #56368	; 0xdc30
    c440:	e3409000 	movt	r9, #0
    c444:	e1a07000 	mov	r7, r0
    c448:	e3408000 	movt	r8, #0
    c44c:	e3a04000 	mov	r4, #0
    c450:	ea000004 	b	c468 <dump_memory+0x3c>
    c454:	e5d51000 	ldrb	r1, [r5]
    c458:	e1a00008 	mov	r0, r8
    c45c:	eb000193 	bl	cab0 <printk>
    c460:	e1560004 	cmp	r6, r4
    c464:	08bd87f0 	popeq	{r4, r5, r6, r7, r8, r9, sl, pc}
    c468:	e0845007 	add	r5, r4, r7
    c46c:	e314000f 	tst	r4, #15
    c470:	e2844001 	add	r4, r4, #1
    c474:	1afffff6 	bne	c454 <dump_memory+0x28>
    c478:	e1a01005 	mov	r1, r5
    c47c:	e1a00009 	mov	r0, r9
    c480:	eb00018a 	bl	cab0 <printk>
    c484:	eafffff2 	b	c454 <dump_memory+0x28>

0000c488 <time_since_boot>:
    c488:	e3083554 	movw	r3, #34132	; 0x8554
    c48c:	e3403002 	movt	r3, #2
    c490:	e5930000 	ldr	r0, [r3]
    c494:	e1a00320 	lsr	r0, r0, #6
    c498:	e12fff1e 	bx	lr

0000c49c <ticks_since_boot>:
    c49c:	e3083554 	movw	r3, #34132	; 0x8554
    c4a0:	e3403002 	movt	r3, #2
    c4a4:	e5930000 	ldr	r0, [r3]
    c4a8:	e12fff1e 	bx	lr

0000c4ac <memcpy>:
    c4ac:	e3520000 	cmp	r2, #0
    c4b0:	012fff1e 	bxeq	lr
    c4b4:	e080c002 	add	ip, r0, r2
    c4b8:	e2411001 	sub	r1, r1, #1
    c4bc:	e1a03000 	mov	r3, r0
    c4c0:	e5f12001 	ldrb	r2, [r1, #1]!
    c4c4:	e4c32001 	strb	r2, [r3], #1
    c4c8:	e153000c 	cmp	r3, ip
    c4cc:	1afffffb 	bne	c4c0 <memcpy+0x14>
    c4d0:	e12fff1e 	bx	lr

0000c4d4 <memcpy_4byte>:
    c4d4:	e92d4010 	push	{r4, lr}
    c4d8:	e202e003 	and	lr, r2, #3
    c4dc:	e1b04122 	lsrs	r4, r2, #2
    c4e0:	0a000006 	beq	c500 <memcpy_4byte+0x2c>
    c4e4:	e0814104 	add	r4, r1, r4, lsl #2
    c4e8:	e1a03001 	mov	r3, r1
    c4ec:	e2402004 	sub	r2, r0, #4
    c4f0:	e493c004 	ldr	ip, [r3], #4
    c4f4:	e1530004 	cmp	r3, r4
    c4f8:	e5a2c004 	str	ip, [r2, #4]!
    c4fc:	1afffffb 	bne	c4f0 <memcpy_4byte+0x1c>
    c500:	e35e0000 	cmp	lr, #0
    c504:	08bd8010 	popeq	{r4, pc}
    c508:	e081200e 	add	r2, r1, lr
    c50c:	e2403001 	sub	r3, r0, #1
    c510:	e4d1c001 	ldrb	ip, [r1], #1
    c514:	e1520001 	cmp	r2, r1
    c518:	e5e3c001 	strb	ip, [r3, #1]!
    c51c:	1afffffb 	bne	c510 <memcpy_4byte+0x3c>
    c520:	e8bd8010 	pop	{r4, pc}

0000c524 <memset_byte>:
    c524:	e3520000 	cmp	r2, #0
    c528:	012fff1e 	bxeq	lr
    c52c:	e2422001 	sub	r2, r2, #1
    c530:	e6ef1071 	uxtb	r1, r1
    c534:	e0802002 	add	r2, r0, r2
    c538:	e2403001 	sub	r3, r0, #1
    c53c:	e5e31001 	strb	r1, [r3, #1]!
    c540:	e1530002 	cmp	r3, r2
    c544:	1afffffc 	bne	c53c <memset_byte+0x18>
    c548:	e12fff1e 	bx	lr

0000c54c <memset_4byte>:
    c54c:	e6ef1071 	uxtb	r1, r1
    c550:	e92d4030 	push	{r4, r5, lr}
    c554:	e2105003 	ands	r5, r0, #3
    c558:	e1a0e801 	lsl	lr, r1, #16
    c55c:	e18ee401 	orr	lr, lr, r1, lsl #8
    c560:	e18ee001 	orr	lr, lr, r1
    c564:	e18eec01 	orr	lr, lr, r1, lsl #24
    c568:	0a000018 	beq	c5d0 <memset_4byte+0x84>
    c56c:	e265c004 	rsb	ip, r5, #4
    c570:	e1a03000 	mov	r3, r0
    c574:	e080c00c 	add	ip, r0, ip
    c578:	e4c31001 	strb	r1, [r3], #1
    c57c:	e153000c 	cmp	r3, ip
    c580:	1afffffc 	bne	c578 <memset_4byte+0x2c>
    c584:	e2424001 	sub	r4, r2, #1
    c588:	e1b04124 	lsrs	r4, r4, #2
    c58c:	0a000007 	beq	c5b0 <memset_4byte+0x64>
    c590:	e2433004 	sub	r3, r3, #4
    c594:	e3a0c000 	mov	ip, #0
    c598:	e5a3e004 	str	lr, [r3, #4]!
    c59c:	e28cc001 	add	ip, ip, #1
    c5a0:	e15c0004 	cmp	ip, r4
    c5a4:	3afffffb 	bcc	c598 <memset_4byte+0x4c>
    c5a8:	e3550000 	cmp	r5, #0
    c5ac:	08bd8030 	popeq	{r4, r5, pc}
    c5b0:	e0422005 	sub	r2, r2, r5
    c5b4:	e0802002 	add	r2, r0, r2
    c5b8:	e1a03002 	mov	r3, r2
    c5bc:	e4c31001 	strb	r1, [r3], #1
    c5c0:	e043c002 	sub	ip, r3, r2
    c5c4:	e155000c 	cmp	r5, ip
    c5c8:	8afffffb 	bhi	c5bc <memset_4byte+0x70>
    c5cc:	e8bd8030 	pop	{r4, r5, pc}
    c5d0:	e1b04122 	lsrs	r4, r2, #2
    c5d4:	08bd8030 	popeq	{r4, r5, pc}
    c5d8:	e1a03000 	mov	r3, r0
    c5dc:	eaffffeb 	b	c590 <memset_4byte+0x44>

0000c5e0 <memset>:
    c5e0:	e92d41f0 	push	{r4, r5, r6, r7, r8, lr}
    c5e4:	e2103003 	ands	r3, r0, #3
    c5e8:	e1a0c000 	mov	ip, r0
    c5ec:	0a000006 	beq	c60c <asm_memset_4bytealigned>
    c5f0:	e2522004 	subs	r2, r2, #4
    c5f4:	ba00001a 	blt	c664 <asm_memset_lessthan4>
    c5f8:	e3530002 	cmp	r3, #2
    c5fc:	b4cc1001 	strblt	r1, [ip], #1
    c600:	d4cc1001 	strble	r1, [ip], #1
    c604:	e4cc1001 	strb	r1, [ip], #1
    c608:	e0822003 	add	r2, r2, r3

0000c60c <asm_memset_4bytealigned>:
    c60c:	e1811401 	orr	r1, r1, r1, lsl #8
    c610:	e1811801 	orr	r1, r1, r1, lsl #16
    c614:	e1a03001 	mov	r3, r1
    c618:	e1a04001 	mov	r4, r1
    c61c:	e1a05001 	mov	r5, r1
    c620:	e1a06001 	mov	r6, r1
    c624:	e1a07001 	mov	r7, r1
    c628:	e1a08001 	mov	r8, r1
    c62c:	e1a0e001 	mov	lr, r1

0000c630 <asm_memset_loop>:
    c630:	e2522040 	subs	r2, r2, #64	; 0x40
    c634:	a8ac41fa 	stmiage	ip!, {r1, r3, r4, r5, r6, r7, r8, lr}
    c638:	a8ac41fa 	stmiage	ip!, {r1, r3, r4, r5, r6, r7, r8, lr}
    c63c:	cafffffb 	bgt	c630 <asm_memset_loop>
    c640:	0a00000c 	beq	c678 <asm_memset_done>
    c644:	e3120020 	tst	r2, #32
    c648:	18ac41fa 	stmiane	ip!, {r1, r3, r4, r5, r6, r7, r8, lr}
    c64c:	e3120010 	tst	r2, #16
    c650:	18ac00f0 	stmiane	ip!, {r4, r5, r6, r7}
    c654:	e3120008 	tst	r2, #8
    c658:	18ac000a 	stmiane	ip!, {r1, r3}
    c65c:	e3120004 	tst	r2, #4
    c660:	148c1004 	strne	r1, [ip], #4

0000c664 <asm_memset_lessthan4>:
    c664:	e3120002 	tst	r2, #2
    c668:	14cc1001 	strbne	r1, [ip], #1
    c66c:	14cc1001 	strbne	r1, [ip], #1
    c670:	e3120001 	tst	r2, #1
    c674:	14cc1001 	strbne	r1, [ip], #1

0000c678 <asm_memset_done>:
    c678:	e8bd41f0 	pop	{r4, r5, r6, r7, r8, lr}
    c67c:	e12fff1e 	bx	lr

0000c680 <vsprintf>:
    c680:	e5d13000 	ldrb	r3, [r1]
    c684:	e3530000 	cmp	r3, #0
    c688:	0a000106 	beq	caa8 <vsprintf+0x428>
    c68c:	e92d4ff0 	push	{r4, r5, r6, r7, r8, r9, sl, fp, lr}
    c690:	e30c9ccd 	movw	r9, #52429	; 0xcccd
    c694:	e34c9ccc 	movt	r9, #52428	; 0xcccc
    c698:	e1a0b000 	mov	fp, r0
    c69c:	e24dd02c 	sub	sp, sp, #44	; 0x2c
    c6a0:	e3a00000 	mov	r0, #0
    c6a4:	e3a0a00a 	mov	sl, #10
    c6a8:	ea000009 	b	c6d4 <vsprintf+0x54>
    c6ac:	e7cb3000 	strb	r3, [fp, r0]
    c6b0:	e2800001 	add	r0, r0, #1
    c6b4:	e3500c01 	cmp	r0, #256	; 0x100
    c6b8:	0a0000af 	beq	c97c <vsprintf+0x2fc>
    c6bc:	e2811001 	add	r1, r1, #1
    c6c0:	e35000ff 	cmp	r0, #255	; 0xff
    c6c4:	0a000038 	beq	c7ac <vsprintf+0x12c>
    c6c8:	e5d13000 	ldrb	r3, [r1]
    c6cc:	e3530000 	cmp	r3, #0
    c6d0:	0a000035 	beq	c7ac <vsprintf+0x12c>
    c6d4:	e3530025 	cmp	r3, #37	; 0x25
    c6d8:	1afffff3 	bne	c6ac <vsprintf+0x2c>
    c6dc:	e5d1e001 	ldrb	lr, [r1, #1]
    c6e0:	e24ec030 	sub	ip, lr, #48	; 0x30
    c6e4:	e6efc07c 	uxtb	ip, ip
    c6e8:	e35c0009 	cmp	ip, #9
    c6ec:	9a00004a 	bls	c81c <vsprintf+0x19c>
    c6f0:	e3a0c000 	mov	ip, #0
    c6f4:	e2813001 	add	r3, r1, #1
    c6f8:	e3a01020 	mov	r1, #32
    c6fc:	e58d1008 	str	r1, [sp, #8]
    c700:	e35e0069 	cmp	lr, #105	; 0x69
    c704:	135e0064 	cmpne	lr, #100	; 0x64
    c708:	1a000029 	bne	c7b4 <vsprintf+0x134>
    c70c:	e492e004 	ldr	lr, [r2], #4
    c710:	e2831001 	add	r1, r3, #1
    c714:	e35e0000 	cmp	lr, #0
    c718:	a3a08000 	movge	r8, #0
    c71c:	ba000051 	blt	c868 <vsprintf+0x1e8>
    c720:	e2888009 	add	r8, r8, #9
    c724:	e28d701e 	add	r7, sp, #30
    c728:	e3a06009 	mov	r6, #9
    c72c:	e0853e99 	umull	r3, r5, r9, lr
    c730:	e1a04006 	mov	r4, r6
    c734:	e35e0009 	cmp	lr, #9
    c738:	e1a051a5 	lsr	r5, r5, #3
    c73c:	e2466001 	sub	r6, r6, #1
    c740:	e063e59a 	mls	r3, sl, r5, lr
    c744:	e1a0e005 	mov	lr, r5
    c748:	e0485006 	sub	r5, r8, r6
    c74c:	e2833030 	add	r3, r3, #48	; 0x30
    c750:	e6ef3073 	uxtb	r3, r3
    c754:	e6ef5075 	uxtb	r5, r5
    c758:	e5673001 	strb	r3, [r7, #-1]!
    c75c:	8afffff2 	bhi	c72c <vsprintf+0xac>
    c760:	e15c0005 	cmp	ip, r5
    c764:	8a000047 	bhi	c888 <vsprintf+0x208>
    c768:	e284e001 	add	lr, r4, #1
    c76c:	e240c001 	sub	ip, r0, #1
    c770:	e08bc00c 	add	ip, fp, ip
    c774:	e264400a 	rsb	r4, r4, #10
    c778:	e0844000 	add	r4, r4, r0
    c77c:	e28d5014 	add	r5, sp, #20
    c780:	e085e00e 	add	lr, r5, lr
    c784:	ea000000 	b	c78c <vsprintf+0x10c>
    c788:	e4de3001 	ldrb	r3, [lr], #1
    c78c:	e5ec3001 	strb	r3, [ip, #1]!
    c790:	e2800001 	add	r0, r0, #1
    c794:	e3500c01 	cmp	r0, #256	; 0x100
    c798:	0affffca 	beq	c6c8 <vsprintf+0x48>
    c79c:	e1540000 	cmp	r4, r0
    c7a0:	1afffff8 	bne	c788 <vsprintf+0x108>
    c7a4:	e35000ff 	cmp	r0, #255	; 0xff
    c7a8:	1affffc6 	bne	c6c8 <vsprintf+0x48>
    c7ac:	e28dd02c 	add	sp, sp, #44	; 0x2c
    c7b0:	e8bd8ff0 	pop	{r4, r5, r6, r7, r8, r9, sl, fp, pc}
    c7b4:	e35e006c 	cmp	lr, #108	; 0x6c
    c7b8:	0a000072 	beq	c988 <vsprintf+0x308>
    c7bc:	e20e10f7 	and	r1, lr, #247	; 0xf7
    c7c0:	e3510070 	cmp	r1, #112	; 0x70
    c7c4:	0a000042 	beq	c8d4 <vsprintf+0x254>
    c7c8:	e35e0063 	cmp	lr, #99	; 0x63
    c7cc:	0a000064 	beq	c964 <vsprintf+0x2e4>
    c7d0:	e35e0025 	cmp	lr, #37	; 0x25
    c7d4:	0a000098 	beq	ca3c <vsprintf+0x3bc>
    c7d8:	e35e0073 	cmp	lr, #115	; 0x73
    c7dc:	11a01003 	movne	r1, r3
    c7e0:	1affffb6 	bne	c6c0 <vsprintf+0x40>
    c7e4:	e492e004 	ldr	lr, [r2], #4
    c7e8:	e240c001 	sub	ip, r0, #1
    c7ec:	e08bc00c 	add	ip, fp, ip
    c7f0:	e2831001 	add	r1, r3, #1
    c7f4:	e04ee000 	sub	lr, lr, r0
    c7f8:	ea000003 	b	c80c <vsprintf+0x18c>
    c7fc:	e5ec3001 	strb	r3, [ip, #1]!
    c800:	e2800001 	add	r0, r0, #1
    c804:	e3500c01 	cmp	r0, #256	; 0x100
    c808:	0affffae 	beq	c6c8 <vsprintf+0x48>
    c80c:	e7de3000 	ldrb	r3, [lr, r0]
    c810:	e3530000 	cmp	r3, #0
    c814:	1afffff8 	bne	c7fc <vsprintf+0x17c>
    c818:	eaffffa8 	b	c6c0 <vsprintf+0x40>
    c81c:	e35e0030 	cmp	lr, #48	; 0x30
    c820:	e2813002 	add	r3, r1, #2
    c824:	e5d1e002 	ldrb	lr, [r1, #2]
    c828:	03a01030 	moveq	r1, #48	; 0x30
    c82c:	13a01020 	movne	r1, #32
    c830:	e58d1008 	str	r1, [sp, #8]
    c834:	e24e1030 	sub	r1, lr, #48	; 0x30
    c838:	e3510009 	cmp	r1, #9
    c83c:	8affffaf 	bhi	c700 <vsprintf+0x80>
    c840:	e1a0110c 	lsl	r1, ip, #2
    c844:	e08cc001 	add	ip, ip, r1
    c848:	e08ec08c 	add	ip, lr, ip, lsl #1
    c84c:	e5f3e001 	ldrb	lr, [r3, #1]!
    c850:	e24cc030 	sub	ip, ip, #48	; 0x30
    c854:	e20cc0ff 	and	ip, ip, #255	; 0xff
    c858:	e24e1030 	sub	r1, lr, #48	; 0x30
    c85c:	e3510009 	cmp	r1, #9
    c860:	9afffff6 	bls	c840 <vsprintf+0x1c0>
    c864:	eaffffa5 	b	c700 <vsprintf+0x80>
    c868:	e3a0302d 	mov	r3, #45	; 0x2d
    c86c:	e7cb3000 	strb	r3, [fp, r0]
    c870:	e2800001 	add	r0, r0, #1
    c874:	e3500c01 	cmp	r0, #256	; 0x100
    c878:	0a00003f 	beq	c97c <vsprintf+0x2fc>
    c87c:	e26ee000 	rsb	lr, lr, #0
    c880:	e3a08001 	mov	r8, #1
    c884:	eaffffa5 	b	c720 <vsprintf+0xa0>
    c888:	e04c5005 	sub	r5, ip, r5
    c88c:	e3550000 	cmp	r5, #0
    c890:	daffffb4 	ble	c768 <vsprintf+0xe8>
    c894:	e59d6008 	ldr	r6, [sp, #8]
    c898:	e35000ff 	cmp	r0, #255	; 0xff
    c89c:	e08be000 	add	lr, fp, r0
    c8a0:	e280c001 	add	ip, r0, #1
    c8a4:	e7cb6000 	strb	r6, [fp, r0]
    c8a8:	0a000007 	beq	c8cc <vsprintf+0x24c>
    c8ac:	e0850000 	add	r0, r5, r0
    c8b0:	e1a05006 	mov	r5, r6
    c8b4:	e150000c 	cmp	r0, ip
    c8b8:	e28cc001 	add	ip, ip, #1
    c8bc:	0affffa9 	beq	c768 <vsprintf+0xe8>
    c8c0:	e5ee5001 	strb	r5, [lr, #1]!
    c8c4:	e35c0c01 	cmp	ip, #256	; 0x100
    c8c8:	1afffff9 	bne	c8b4 <vsprintf+0x234>
    c8cc:	e3a00c01 	mov	r0, #256	; 0x100
    c8d0:	eaffffa4 	b	c768 <vsprintf+0xe8>
    c8d4:	e1a08002 	mov	r8, r2
    c8d8:	e2831001 	add	r1, r3, #1
    c8dc:	e28d501e 	add	r5, sp, #30
    c8e0:	e3a02009 	mov	r2, #9
    c8e4:	e4983004 	ldr	r3, [r8], #4
    c8e8:	ea000000 	b	c8f0 <vsprintf+0x270>
    c8ec:	e1a02006 	mov	r2, r6
    c8f0:	e203400f 	and	r4, r3, #15
    c8f4:	e2426001 	sub	r6, r2, #1
    c8f8:	e3540009 	cmp	r4, #9
    c8fc:	e284e057 	add	lr, r4, #87	; 0x57
    c900:	9284e030 	addls	lr, r4, #48	; 0x30
    c904:	e353000f 	cmp	r3, #15
    c908:	e565e001 	strb	lr, [r5, #-1]!
    c90c:	e262400a 	rsb	r4, r2, #10
    c910:	e1a03223 	lsr	r3, r3, #4
    c914:	e6ef7074 	uxtb	r7, r4
    c918:	8afffff3 	bhi	c8ec <vsprintf+0x26c>
    c91c:	e15c0007 	cmp	ip, r7
    c920:	8a00004d 	bhi	ca5c <vsprintf+0x3dc>
    c924:	e0844000 	add	r4, r4, r0
    c928:	e28d3014 	add	r3, sp, #20
    c92c:	e2822001 	add	r2, r2, #1
    c930:	e0832002 	add	r2, r3, r2
    c934:	e2403001 	sub	r3, r0, #1
    c938:	e08b3003 	add	r3, fp, r3
    c93c:	ea000000 	b	c944 <vsprintf+0x2c4>
    c940:	e4d2e001 	ldrb	lr, [r2], #1
    c944:	e5e3e001 	strb	lr, [r3, #1]!
    c948:	e2800001 	add	r0, r0, #1
    c94c:	e3500c01 	cmp	r0, #256	; 0x100
    c950:	0a00003f 	beq	ca54 <vsprintf+0x3d4>
    c954:	e1500004 	cmp	r0, r4
    c958:	1afffff8 	bne	c940 <vsprintf+0x2c0>
    c95c:	e1a02008 	mov	r2, r8
    c960:	eaffff56 	b	c6c0 <vsprintf+0x40>
    c964:	e2831001 	add	r1, r3, #1
    c968:	e4923004 	ldr	r3, [r2], #4
    c96c:	e7cb3000 	strb	r3, [fp, r0]
    c970:	e2800001 	add	r0, r0, #1
    c974:	e3500c01 	cmp	r0, #256	; 0x100
    c978:	1affff50 	bne	c6c0 <vsprintf+0x40>
    c97c:	e3a00c01 	mov	r0, #256	; 0x100
    c980:	e28dd02c 	add	sp, sp, #44	; 0x2c
    c984:	e8bd8ff0 	pop	{r4, r5, r6, r7, r8, r9, sl, fp, pc}
    c988:	e58d900c 	str	r9, [sp, #12]
    c98c:	e2822007 	add	r2, r2, #7
    c990:	e3c22007 	bic	r2, r2, #7
    c994:	e2831003 	add	r1, r3, #3
    c998:	e28d6026 	add	r6, sp, #38	; 0x26
    c99c:	e3a0e011 	mov	lr, #17
    c9a0:	e0c240d8 	ldrd	r4, [r2], #8
    c9a4:	e58d2008 	str	r2, [sp, #8]
    c9a8:	ea000000 	b	c9b0 <vsprintf+0x330>
    c9ac:	e1a0e007 	mov	lr, r7
    c9b0:	e3a09000 	mov	r9, #0
    c9b4:	e204800f 	and	r8, r4, #15
    c9b8:	e3590000 	cmp	r9, #0
    c9bc:	e2883057 	add	r3, r8, #87	; 0x57
    c9c0:	03580009 	cmpeq	r8, #9
    c9c4:	e24e7001 	sub	r7, lr, #1
    c9c8:	e1a02224 	lsr	r2, r4, #4
    c9cc:	92883030 	addls	r3, r8, #48	; 0x30
    c9d0:	e5663001 	strb	r3, [r6, #-1]!
    c9d4:	e3550000 	cmp	r5, #0
    c9d8:	e1822e05 	orr	r2, r2, r5, lsl #28
    c9dc:	0354000f 	cmpeq	r4, #15
    c9e0:	e1a0c225 	lsr	ip, r5, #4
    c9e4:	e1a04002 	mov	r4, r2
    c9e8:	e1a0500c 	mov	r5, ip
    c9ec:	8affffee 	bhi	c9ac <vsprintf+0x32c>
    c9f0:	e59d2008 	ldr	r2, [sp, #8]
    c9f4:	e28e4001 	add	r4, lr, #1
    c9f8:	e240c001 	sub	ip, r0, #1
    c9fc:	e2805012 	add	r5, r0, #18
    ca00:	e08bc00c 	add	ip, fp, ip
    ca04:	e28d6014 	add	r6, sp, #20
    ca08:	e1cd80f0 	strd	r8, [sp]
    ca0c:	e0864004 	add	r4, r6, r4
    ca10:	e59d900c 	ldr	r9, [sp, #12]
    ca14:	e045e00e 	sub	lr, r5, lr
    ca18:	ea000000 	b	ca20 <vsprintf+0x3a0>
    ca1c:	e4d43001 	ldrb	r3, [r4], #1
    ca20:	e5ec3001 	strb	r3, [ip, #1]!
    ca24:	e2800001 	add	r0, r0, #1
    ca28:	e3500c01 	cmp	r0, #256	; 0x100
    ca2c:	0affff25 	beq	c6c8 <vsprintf+0x48>
    ca30:	e150000e 	cmp	r0, lr
    ca34:	1afffff8 	bne	ca1c <vsprintf+0x39c>
    ca38:	eaffff20 	b	c6c0 <vsprintf+0x40>
    ca3c:	e7cbe000 	strb	lr, [fp, r0]
    ca40:	e2800001 	add	r0, r0, #1
    ca44:	e3500c01 	cmp	r0, #256	; 0x100
    ca48:	e2831001 	add	r1, r3, #1
    ca4c:	1affff1b 	bne	c6c0 <vsprintf+0x40>
    ca50:	eaffffc9 	b	c97c <vsprintf+0x2fc>
    ca54:	e1a02008 	mov	r2, r8
    ca58:	eaffff1a 	b	c6c8 <vsprintf+0x48>
    ca5c:	e04cc007 	sub	ip, ip, r7
    ca60:	e35c0000 	cmp	ip, #0
    ca64:	daffffae 	ble	c924 <vsprintf+0x2a4>
    ca68:	e59d6008 	ldr	r6, [sp, #8]
    ca6c:	e35000ff 	cmp	r0, #255	; 0xff
    ca70:	e08b5000 	add	r5, fp, r0
    ca74:	e2803001 	add	r3, r0, #1
    ca78:	e7cb6000 	strb	r6, [fp, r0]
    ca7c:	0a000007 	beq	caa0 <vsprintf+0x420>
    ca80:	e08c0000 	add	r0, ip, r0
    ca84:	e1a0c006 	mov	ip, r6
    ca88:	e1530000 	cmp	r3, r0
    ca8c:	e2833001 	add	r3, r3, #1
    ca90:	0affffa3 	beq	c924 <vsprintf+0x2a4>
    ca94:	e5e5c001 	strb	ip, [r5, #1]!
    ca98:	e3530c01 	cmp	r3, #256	; 0x100
    ca9c:	1afffff9 	bne	ca88 <vsprintf+0x408>
    caa0:	e3a00c01 	mov	r0, #256	; 0x100
    caa4:	eaffff9e 	b	c924 <vsprintf+0x2a4>
    caa8:	e1a00003 	mov	r0, r3
    caac:	e12fff1e 	bx	lr

0000cab0 <printk>:
    cab0:	e92d000f 	push	{r0, r1, r2, r3}
    cab4:	e92d4010 	push	{r4, lr}
    cab8:	e24ddf42 	sub	sp, sp, #264	; 0x108
    cabc:	e28d2f45 	add	r2, sp, #276	; 0x114
    cac0:	e28d0008 	add	r0, sp, #8
    cac4:	e59d1110 	ldr	r1, [sp, #272]	; 0x110
    cac8:	e58d2004 	str	r2, [sp, #4]
    cacc:	ebfffeeb 	bl	c680 <vsprintf>
    cad0:	e1a04000 	mov	r4, r0
    cad4:	e28d0008 	add	r0, sp, #8
    cad8:	e1a01004 	mov	r1, r4
    cadc:	ebfff70a 	bl	a70c <console_write>
    cae0:	e1a00004 	mov	r0, r4
    cae4:	e28ddf42 	add	sp, sp, #264	; 0x108
    cae8:	e8bd4010 	pop	{r4, lr}
    caec:	e28dd010 	add	sp, sp, #16
    caf0:	e12fff1e 	bx	lr

0000caf4 <serial_printk>:
    caf4:	e92d000f 	push	{r0, r1, r2, r3}
    caf8:	e92d4010 	push	{r4, lr}
    cafc:	e24ddf42 	sub	sp, sp, #264	; 0x108
    cb00:	e28d2f45 	add	r2, sp, #276	; 0x114
    cb04:	e28d0008 	add	r0, sp, #8
    cb08:	e59d1110 	ldr	r1, [sp, #272]	; 0x110
    cb0c:	e58d2004 	str	r2, [sp, #4]
    cb10:	ebfffeda 	bl	c680 <vsprintf>
    cb14:	e1a04000 	mov	r4, r0
    cb18:	e28d0008 	add	r0, sp, #8
    cb1c:	e1a01004 	mov	r1, r4
    cb20:	ebfff79b 	bl	a994 <serial_write>
    cb24:	e1a00004 	mov	r0, r4
    cb28:	e28ddf42 	add	sp, sp, #264	; 0x108
    cb2c:	e8bd4010 	pop	{r4, lr}
    cb30:	e28dd010 	add	sp, sp, #16
    cb34:	e12fff1e 	bx	lr

0000cb38 <sprintf>:
    cb38:	e92d000e 	push	{r1, r2, r3}
    cb3c:	e92d4010 	push	{r4, lr}
    cb40:	e24dd00c 	sub	sp, sp, #12
    cb44:	e28d2018 	add	r2, sp, #24
    cb48:	e1a04000 	mov	r4, r0
    cb4c:	e59d1014 	ldr	r1, [sp, #20]
    cb50:	e58d2004 	str	r2, [sp, #4]
    cb54:	ebfffec9 	bl	c680 <vsprintf>
    cb58:	e3a02000 	mov	r2, #0
    cb5c:	e7c42000 	strb	r2, [r4, r0]
    cb60:	e28dd00c 	add	sp, sp, #12
    cb64:	e8bd4010 	pop	{r4, lr}
    cb68:	e28dd00c 	add	sp, sp, #12
    cb6c:	e12fff1e 	bx	lr

0000cb70 <strncmp>:
    cb70:	e3520000 	cmp	r2, #0
    cb74:	0a00000c 	beq	cbac <strncmp+0x3c>
    cb78:	e080c002 	add	ip, r0, r2
    cb7c:	e2411001 	sub	r1, r1, #1
    cb80:	e2402001 	sub	r2, r0, #1
    cb84:	e24cc001 	sub	ip, ip, #1
    cb88:	e5f23001 	ldrb	r3, [r2, #1]!
    cb8c:	e5f10001 	ldrb	r0, [r1, #1]!
    cb90:	e0530000 	subs	r0, r3, r0
    cb94:	112fff1e 	bxne	lr
    cb98:	e3530000 	cmp	r3, #0
    cb9c:	012fff1e 	bxeq	lr
    cba0:	e152000c 	cmp	r2, ip
    cba4:	1afffff7 	bne	cb88 <strncmp+0x18>
    cba8:	e12fff1e 	bx	lr
    cbac:	e1a00002 	mov	r0, r2
    cbb0:	e12fff1e 	bx	lr

0000cbb4 <memcmp>:
    cbb4:	e3520000 	cmp	r2, #0
    cbb8:	0a00000d 	beq	cbf4 <memcmp+0x40>
    cbbc:	e92d4010 	push	{r4, lr}
    cbc0:	e240c001 	sub	ip, r0, #1
    cbc4:	e1a04000 	mov	r4, r0
    cbc8:	e241e001 	sub	lr, r1, #1
    cbcc:	e5fe0001 	ldrb	r0, [lr, #1]!
    cbd0:	e1a0300c 	mov	r3, ip
    cbd4:	e5fc1001 	ldrb	r1, [ip, #1]!
    cbd8:	e2833002 	add	r3, r3, #2
    cbdc:	e0433004 	sub	r3, r3, r4
    cbe0:	e0510000 	subs	r0, r1, r0
    cbe4:	18bd8010 	popne	{r4, pc}
    cbe8:	e1520003 	cmp	r2, r3
    cbec:	1afffff6 	bne	cbcc <memcmp+0x18>
    cbf0:	e8bd8010 	pop	{r4, pc}
    cbf4:	e1a00002 	mov	r0, r2
    cbf8:	e12fff1e 	bx	lr

0000cbfc <strncpy>:
    cbfc:	e3520000 	cmp	r2, #0
    cc00:	012fff1e 	bxeq	lr
    cc04:	e2403001 	sub	r3, r0, #1
    cc08:	e241c001 	sub	ip, r1, #1
    cc0c:	e92d4030 	push	{r4, r5, lr}
    cc10:	e2605001 	rsb	r5, r0, #1
    cc14:	e0834002 	add	r4, r3, r2
    cc18:	ea000001 	b	cc24 <strncpy+0x28>
    cc1c:	e1530004 	cmp	r3, r4
    cc20:	08bd8030 	popeq	{r4, r5, pc}
    cc24:	e5fce001 	ldrb	lr, [ip, #1]!
    cc28:	e0851003 	add	r1, r5, r3
    cc2c:	e5e3e001 	strb	lr, [r3, #1]!
    cc30:	e5dce000 	ldrb	lr, [ip]
    cc34:	e35e0000 	cmp	lr, #0
    cc38:	1afffff7 	bne	cc1c <strncpy+0x20>
    cc3c:	e1520001 	cmp	r2, r1
    cc40:	98bd8030 	popls	{r4, r5, pc}
    cc44:	e2413001 	sub	r3, r1, #1
    cc48:	e0803003 	add	r3, r0, r3
    cc4c:	e5e3e001 	strb	lr, [r3, #1]!
    cc50:	e1530004 	cmp	r3, r4
    cc54:	1afffffc 	bne	cc4c <strncpy+0x50>
    cc58:	e8bd8030 	pop	{r4, r5, pc}

0000cc5c <strlcpy>:
    cc5c:	e2522001 	subs	r2, r2, #1
    cc60:	e92d4010 	push	{r4, lr}
    cc64:	e1a04000 	mov	r4, r0
    cc68:	0a000012 	beq	ccb8 <strlcpy+0x5c>
    cc6c:	e1a0c000 	mov	ip, r0
    cc70:	e2411001 	sub	r1, r1, #1
    cc74:	e3a00000 	mov	r0, #0
    cc78:	ea000002 	b	cc88 <strlcpy+0x2c>
    cc7c:	e2800001 	add	r0, r0, #1
    cc80:	e1500002 	cmp	r0, r2
    cc84:	0a000009 	beq	ccb0 <strlcpy+0x54>
    cc88:	e5f1e001 	ldrb	lr, [r1, #1]!
    cc8c:	e1a0300c 	mov	r3, ip
    cc90:	e28cc001 	add	ip, ip, #1
    cc94:	e54ce001 	strb	lr, [ip, #-1]
    cc98:	e5d1e000 	ldrb	lr, [r1]
    cc9c:	e35e0000 	cmp	lr, #0
    cca0:	1afffff5 	bne	cc7c <strlcpy+0x20>
    cca4:	e3a02000 	mov	r2, #0
    cca8:	e5c32000 	strb	r2, [r3]
    ccac:	e8bd8010 	pop	{r4, pc}
    ccb0:	e0843000 	add	r3, r4, r0
    ccb4:	eafffffa 	b	cca4 <strlcpy+0x48>
    ccb8:	e1a03000 	mov	r3, r0
    ccbc:	e1a00002 	mov	r0, r2
    ccc0:	eafffff7 	b	cca4 <strlcpy+0x48>

0000ccc4 <strncat>:
    ccc4:	e92d4070 	push	{r4, r5, r6, lr}
    ccc8:	e5d06000 	ldrb	r6, [r0]
    cccc:	e3560000 	cmp	r6, #0
    ccd0:	0a000021 	beq	cd5c <strncat+0x98>
    ccd4:	e2804001 	add	r4, r0, #1
    ccd8:	e3a0e000 	mov	lr, #0
    ccdc:	e5d45000 	ldrb	r5, [r4]
    cce0:	e28ee001 	add	lr, lr, #1
    cce4:	e1a0c004 	mov	ip, r4
    cce8:	e1a0600e 	mov	r6, lr
    ccec:	e3550000 	cmp	r5, #0
    ccf0:	e2844001 	add	r4, r4, #1
    ccf4:	1afffff8 	bne	ccdc <strncat+0x18>
    ccf8:	e3520000 	cmp	r2, #0
    ccfc:	0a000010 	beq	cd44 <strncat+0x80>
    cd00:	e0815002 	add	r5, r1, r2
    cd04:	e2412001 	sub	r2, r1, #1
    cd08:	e080e006 	add	lr, r0, r6
    cd0c:	e2455001 	sub	r5, r5, #1
    cd10:	ea000001 	b	cd1c <strncat+0x58>
    cd14:	e1520005 	cmp	r2, r5
    cd18:	0a00000c 	beq	cd50 <strncat+0x8c>
    cd1c:	e1a0c00e 	mov	ip, lr
    cd20:	e1a03002 	mov	r3, r2
    cd24:	e5f2e001 	ldrb	lr, [r2, #1]!
    cd28:	e2833002 	add	r3, r3, #2
    cd2c:	e0433001 	sub	r3, r3, r1
    cd30:	e5cce000 	strb	lr, [ip]
    cd34:	e28ce001 	add	lr, ip, #1
    cd38:	e5d24000 	ldrb	r4, [r2]
    cd3c:	e3540000 	cmp	r4, #0
    cd40:	1afffff3 	bne	cd14 <strncat+0x50>
    cd44:	e3a03000 	mov	r3, #0
    cd48:	e5cc3000 	strb	r3, [ip]
    cd4c:	e8bd8070 	pop	{r4, r5, r6, pc}
    cd50:	e0863003 	add	r3, r6, r3
    cd54:	e080c003 	add	ip, r0, r3
    cd58:	eafffff9 	b	cd44 <strncat+0x80>
    cd5c:	e1a0c000 	mov	ip, r0
    cd60:	eaffffe4 	b	ccf8 <strncat+0x34>

0000cd64 <strlen>:
    cd64:	e1a03000 	mov	r3, r0
    cd68:	e5d00000 	ldrb	r0, [r0]
    cd6c:	e3500000 	cmp	r0, #0
    cd70:	012fff1e 	bxeq	lr
    cd74:	e2631001 	rsb	r1, r3, #1
    cd78:	e0810003 	add	r0, r1, r3
    cd7c:	e5f32001 	ldrb	r2, [r3, #1]!
    cd80:	e3520000 	cmp	r2, #0
    cd84:	1afffffb 	bne	cd78 <strlen+0x14>
    cd88:	e12fff1e 	bx	lr
